(dp0
I20389890
(dp1
S'accepted_answer_post_id'
p2
I20389923
sS'answer_posts'
p3
(lp4
(dp5
S'snippets'
p6
(lp7
(dp8
S'code'
p9
Vrandom.nextInt(max - min + 1) + min\u000a
p10
sS'is_normalized'
p11
I00
sasS'score'
p12
I132
sS'id'
p13
I20389923
sS'rank'
p14
I0
sa(dp15
g6
(lp16
(dp17
g9
S'public static int randInt(int min, int max) {\n    Random rand = new Random();\n    int randomNum = rand.nextInt((max - min) + 1) + min;\n    return randomNum;\n}'
p18
sg11
I01
sasg12
I55
sg13
I20389922
sg14
I1
sa(dp19
g6
(lp20
(dp21
g9
S'import java.util.Random;'
p22
sg11
I01
sa(dp23
g9
S'Random rn = new Random();\nfor (int i = 0; i < 100; i++) {\n    int answer = rn.nextInt(10) + 1;\n    System.out.println(answer);\n}'
p24
sg11
I01
sasg12
I8
sg13
I20389942
sg14
I2
sasS'title'
p25
VGenerating a Random Number between 1 and 10 Java
p26
ssI1509391
(dp27
g2
I1509487
sg3
(lp28
(dp29
g6
(lp30
(dp31
g9
VMap<String, String> map = ...;  // wherever you get this from\u000a\u000a// Get the first entry that the iterator returns\u000aMap.Entry<String, String> entry = map.entrySet().iterator().next();\u000a
p32
sg11
I00
sa(dp33
g9
S'System.out.println("Key: " + entry.getKey() + ", Value: " + entry.getValue());'
p34
sg11
I01
sasg12
I195
sg13
I1509401
sg14
I0
sa(dp35
g6
(lp36
(dp37
g9
S'TreeMap<String, String> myMap = new TreeMap<String, String>();\nString first = myMap.firstEntry().getValue();\nString firstOther = myMap.get(myMap.firstKey());'
p38
sg11
I01
sasg12
I71
sg13
I1509487
sg14
I1
sa(dp39
g6
(lp40
(dp41
g9
S'return hashMapObject.entrySet().iterator().next();'
p42
sg11
I01
sa(dp43
g9
S'return new ArrayList(hashMapObject.entrySet()).get(0);'
p44
sg11
I01
sa(dp45
g9
S'return hashMapObject.entrySet().toArray()[0];'
p46
sg11
I01
sasg12
I24
sg13
I1509418
sg14
I2
sasg25
Vhow to get the one entry from hashmap without iterating
p47
ssI909843
(dp48
g2
I909861
sg3
(lp49
(dp50
g6
(lp51
sg12
I250
sg13
I909861
sg14
I0
sa(dp52
g6
(lp53
sg12
I26
sg13
I909864
sg14
I1
sa(dp54
g6
(lp55
(dp56
g9
S'public class A {\n\n    static int UNIQUE_ID = 0;\n\n    int uid = ++UNIQUE_ID;\n\n    public int hashCode() {\n        return uid;\n    }\n}'
p57
sg11
I01
sasg12
I7
sg13
I27071654
sg14
I2
sasg25
VHow to get the unique ID of an object which overrides hashCode()?
p58
ssI1770010
(dp59
g2
I1776053
sg3
(lp60
(dp61
g6
(lp62
sg12
I477
sg13
I1776053
sg14
I0
sa(dp63
g6
(lp64
(dp65
g9
S'long startTime = System.currentTimeMillis();\nlong estimatedTime = System.currentTimeMillis() - startTime;'
p66
sg11
I01
sa(dp67
g9
S'long startTime = System.nanoTime();\nlong estimatedTime = System.nanoTime() - startTime;'
p68
sg11
I01
sa(dp69
g9
Vimport com.jamonapi.*;\u000a...\u000aMonitor mon=MonitorFactory.start("myFirstMonitor");\u000a...Code Being Timed...\u000amon.stop();\u000a
p70
sg11
I00
sa(dp71
g9
Vpublic aspect MonitorAspect {\u000a    pointcut monitor() : execution(* *.ClassToMonitor.methodToMonitor(..));\u000a\u000a    Object arround() : monitor() {\u000a        Monitor monitor = MonitorFactory.start(thisJoinPoint.toShortString());\u000a        Object returnedObject = proceed();\u000a        monitor.stop();\u000a        return returnedObject;\u000a    }\u000a}\u000a
p72
sg11
I00
sasg12
I160
sg13
I1770475
sg14
I1
sa(dp73
g6
(lp74
(dp75
g9
S'public class TimeWatch {\n\n    long starts;\n\n    public static TimeWatch start() {\n        return new TimeWatch();\n    }\n\n    private TimeWatch() {\n        reset();\n    }\n\n    public TimeWatch reset() {\n        starts = System.currentTimeMillis();\n        return this;\n    }\n\n    public long time() {\n        long ends = System.currentTimeMillis();\n        return ends - starts;\n    }\n\n    public long time(TimeUnit unit) {\n        return unit.convert(time(), TimeUnit.MILLISECONDS);\n    }\n}'
p76
sg11
I01
sa(dp77
g9
S'TimeWatch watch = TimeWatch.start();\nlong passedTimeInMs = watch.time();\nlong passedTimeInSeconds = watch.time(TimeUnit.SECONDS);'
p78
sg11
I01
sasg12
I28
sg13
I1770038
sg14
I2
sasg25
VHow do I measure time elapsed in Java?
p79
ssI2047003
(dp80
g2
I2047092
sg3
(lp81
(dp82
g6
(lp83
(dp84
g9
S'public class Print {\n\n    public static void main(final String[] args) {\n        List<Dog> list = new ArrayList<Dog>();\n        Dog e = new Dog("Tommy");\n        list.add(e);\n        list.add(new Dog("tiger"));\n        System.out.println(list);\n        for (Dog d : list) {\n            System.out.println(d);\n        }\n    }\n\n    private static class Dog {\n\n        private final String name;\n\n        public Dog(final String name) {\n            this.name = name;\n        }\n\n        @Override\n        public String toString() {\n            return name;\n        }\n    }\n}'
p85
sg11
I01
sa(dp86
g9
V[Tommy, tiger]  \u000aTommy  \u000atiger\u000a
p87
sg11
I00
sasg12
I12
sg13
I2047092
sg14
I0
sa(dp88
g6
(lp89
(dp90
g9
S'System.out.println(list.get(index));'
p91
sg11
I01
sasg12
I5
sg13
I2047048
sg14
I1
sa(dp92
g6
(lp93
sg12
I2
sg13
I2047017
sg14
I2
sasg25
Vprint arraylist element?
p94
ssI320542
(dp95
g2
I320595
sg3
(lp96
(dp97
g6
(lp98
(dp99
g9
S'return new File(MyClass.class.getProtectionDomain().getCodeSource().getLocation().toURI().getPath());'
p100
sg11
I01
sasg12
I401
sg13
I320595
sg14
I0
sa(dp101
g6
(lp102
(dp103
g9
S'String path = Test.class.getProtectionDomain().getCodeSource().getLocation().getPath();\nString decodedPath = URLDecoder.decode(path, "UTF-8");'
p104
sg11
I01
sasg12
I164
sg13
I6849255
sg14
I1
sa(dp105
g6
(lp106
(dp107
g9
S'public static URL getLocation(final Class<?> c) {\n    if (c == null)\n        return null;\n    try {\n        final URL codeSourceLocation = c.getProtectionDomain().getCodeSource().getLocation();\n        if (codeSourceLocation != null)\n            return codeSourceLocation;\n    } catch (final SecurityException e) {\n    } catch (final NullPointerException e) {\n    }\n    final URL classResource = c.getResource(c.getSimpleName() + ".class");\n    if (classResource == null)\n        return null;\n    final String url = classResource.toString();\n    final String suffix = c.getCanonicalName().replace(\'.\', \'/\') + ".class";\n    if (!url.endsWith(suffix))\n        return null;\n    final String base = url.substring(0, url.length() - suffix.length());\n    String path = base;\n    if (path.startsWith("jar:"))\n        path = path.substring(4, path.length() - 2);\n    try {\n        return new URL(path);\n    } catch (final MalformedURLException e) {\n        e.printStackTrace();\n        return null;\n    }\n}\npublic static File urlToFile(final URL url) {\n    return url == null ? null : urlToFile(url.toString());\n}\npublic static File urlToFile(final String url) {\n    String path = url;\n    if (path.startsWith("jar:")) {\n        final int index = path.indexOf("!/");\n        path = path.substring(4, index);\n    }\n    try {\n        if (PlatformUtils.isWindows() && path.matches("file:[A-Za-z]:.*")) {\n            path = "file:/" + path.substring(5);\n        }\n        return new File(new URL(path).toURI());\n    } catch (final MalformedURLException e) {\n    } catch (final URISyntaxException e) {\n    }\n    if (path.startsWith("file:")) {\n        path = path.substring(5);\n        return new File(path);\n    }\n    throw new IllegalArgumentException("Invalid URL: " + url);\n}'
p108
sg11
I01
sasg12
I120
sg13
I12733172
sg14
I2
sasg25
VHow to get the path of a running JAR file?
p109
ssI15039519
(dp110
g2
I15039537
sg3
(lp111
(dp112
g6
(lp113
(dp114
g9
S'ArrayList<String> mylist = new ArrayList<String>();\nmylist.add(mystring);'
p115
sg11
I01
sa(dp116
g9
S'String[] myarray = new String[numberofstrings];\nmyarray[23] = string24;'
p117
sg11
I01
sasg12
I63
sg13
I15039537
sg14
I0
sa(dp118
g6
(lp119
(dp120
g9
S'String[] str = new String[10];'
p121
sg11
I01
sa(dp122
g9
Vstr[0] = "value1"\u000astr[1] = "value2"\u000astr[2] = "value3"\u000astr[3] = "value4"\u000astr[4] = "value5"\u000astr[5] = "value6"\u000astr[6] = "value7"\u000astr[7] = "value8"\u000astr[8] = "value9"\u000astr[9] = "value10"\u000a
p123
sg11
I00
sa(dp124
g9
S'str.add("Value1");'
p125
sg11
I01
sa(dp126
g9
S'String s = str.get(0);'
p127
sg11
I01
sa(dp128
g9
S'int nCount = str.size();'
p129
sg11
I01
sasg12
I12
sg13
I15039970
sg14
I1
sa(dp130
g6
(lp131
sg12
I1
sg13
I15039581
sg14
I2
sasg25
VHow to dynamically add elements to String array?
p132
ssI21083170
(dp133
g2
I21083284
sg3
(lp134
(dp135
g6
(lp136
(dp137
g9
S'server.port = 8090;'
p138
sg11
I01
sa(dp139
g9
S'server.port = 0;'
p140
sg11
I01
sasg12
I441
sg13
I21083284
sg14
I0
sa(dp141
g6
(lp142
(dp143
g9
V-Dserver.port=8090\u000a
p144
sg11
I00
sasg12
I69
sg13
I30249389
sg14
I1
sa(dp145
g6
(lp146
(dp147
g9
S'@Controller\npublic class ServletConfig {\n\n    @Bean\n    public EmbeddedServletContainerCustomizer containerCustomizer() {\n        return (container -> {\n            container.setPort(8012);\n        });\n    }\n}'
p148
sg11
I01
sasg12
I53
sg13
I33506475
sg14
I2
sasg25
VSpring Boot - how to configure port
p149
ssI4340653
(dp150
g2
I4342095
sg3
(lp151
(dp152
g6
(lp153
(dp154
g9
S'ServletContext context = getContext();\nString fullPath = context.getRealPath("/WEB-INF/test/foo.txt");'
p155
sg11
I01
sa(dp156
g9
S'ServletContext context = getContext();\nURL resourceUrl = context.getResource("/WEB-INF/test/foo.txt");'
p157
sg11
I01
sa(dp158
g9
S'InputStream resourceContent = context.getResourceAsStream("/WEB-INF/test/foo.txt");'
p159
sg11
I01
sasg12
I117
sg13
I4342095
sg14
I0
sa(dp160
g6
(lp161
(dp162
g9
S'InputStream resource = getServletContext().getResourceAsStream("/WEB-INF/my.json");'
p163
sg11
I01
sasg12
I0
sg13
I45041917
sg14
I1
sasg25
VFile path to resource in our war/WEB-INF folder?
p164
ssI1946668
(dp165
g2
Nsg3
(lp166
(dp167
g6
(lp168
(dp169
g9
S'Collections.sort(unsortedList, new Comparator<Person>() {\n\n    @Override\n    public int compare(Person a, Person b) {\n        return b.getName().compareTo(a.getName());\n    }\n});'
p170
sg11
I01
sa(dp171
g9
S'Collections.sort(unsortedList, new Comparator<Person>() {\n\n    @Override\n    public int compare(Person a, Person b) {\n        return a.getName().compareTo(b.getName());\n    }\n});'
p172
sg11
I01
sa(dp173
g9
S'Collections.sort(personList, (Person a, Person b) -> b.getName().compareTo(a.getName()));'
p174
sg11
I01
sa(dp175
g9
S'personList.sort((a, b) -> b.getName().compareTo(a.getName()));'
p176
sg11
I01
sasg12
I68
sg13
I18206740
sg14
I0
sa(dp177
g6
(lp178
(dp179
g9
S'import java.util.*;\n\npublic class Person implements Comparable<Person> {\n\n    String name;\n\n    int age;\n\n    public Person(String name, int age) {\n        this.name = name;\n        this.age = age;\n    }\n\n    public String getName() {\n        return name;\n    }\n\n    public int getAge() {\n        return age;\n    }\n\n    public String toString() {\n        return name + " : " + age;\n    }\n\n    public int compareTo(Person p) {\n        return getName().compareTo(p.getName());\n    }\n\n    static class AgeComparator implements Comparator<Person> {\n\n        public int compare(Person p1, Person p2) {\n            int age1 = p1.getAge();\n            int age2 = p2.getAge();\n            if (age1 == age2)\n                return 0;\n            else if (age1 > age2)\n                return 1;\n            else\n                return -1;\n        }\n    }\n\n    public static void main(String[] args) {\n        List<Person> people = new ArrayList<Person>();\n        people.add(new Person("Homer", 38));\n        people.add(new Person("Marge", 35));\n        people.add(new Person("Bart", 15));\n        people.add(new Person("Lisa", 13));\n        Collections.sort(people);\n        System.out.println("Sort by Natural order");\n        System.out.println("\\t" + people);\n        Collections.sort(people, Collections.reverseOrder());\n        System.out.println("Sort by reverse natural order");\n        System.out.println("\\t" + people);\n        Collections.sort(people, new Person.AgeComparator());\n        System.out.println("Sort using Age Comparator");\n        System.out.println("\\t" + people);\n        Collections.sort(people, Collections.reverseOrder(new Person.AgeComparator()));\n        System.out.println("Sort using Reverse Age Comparator");\n        System.out.println("\\t" + people);\n    }\n}'
p180
sg11
I01
sasg12
I54
sg13
I1947527
sg14
I1
sa(dp181
g6
(lp182
(dp183
g9
VString[] s = {"a", "x", "y"};\u000aArrays.sort(s, new Comparator<String>() {\u000a\u000a    @Override\u000a    public int compare(String o1, String o2) {\u000a        return o2.compareTo(o1);\u000a    }\u000a});\u000aSystem.out.println(Arrays.toString(s));\u000a\u000a-> [y, x, a]\u000a
p184
sg11
I00
sasg12
I14
sg13
I1946723
sg14
I2
sasg25
VSorting using Comparator- Descending order (User defined classes)
p185
ssI822322
(dp186
g2
I822349
sg3
(lp187
(dp188
g6
(lp189
sg12
I76
sg13
I822349
sg14
I0
sa(dp190
g6
(lp191
(dp192
g9
V MultiKeyMap<k1,k2,...,kn,v> multiMap = ??\u000a
p193
sg11
I00
sasg12
I45
sg13
I822925
sg14
I1
sa(dp194
g6
(lp195
(dp196
g9
S'Map<K2, K1> m2;\nMap<K1, V> m1;'
p197
sg11
I01
sasg12
I39
sg13
I822701
sg14
I2
sasg25
VHow to implement a Map with multiple keys?
p198
ssI4967482
(dp199
g2
Nsg3
(lp200
(dp201
g6
(lp202
(dp203
g9
V<%\u000a    String redirectURL = "http://whatever.com/myJSPFile.jsp";\u000a    response.sendRedirect(redirectURL);\u000a%>\u000a
p204
sg11
I00
sasg12
I74
sg13
I4967495
sg14
I0
sa(dp205
g6
(lp206
(dp207
g9
V<c:redirect url="/home.html"/>\u000a
p208
sg11
I00
sasg12
I15
sg13
I26713723
sg14
I1
sa(dp209
g6
(lp210
(dp211
g9
V<form action="page2.jsp">\u000a    <input type="submit">\u000a</form>\u000a
p212
sg11
I00
sasg12
I4
sg13
I4968773
sg14
I2
sasg25
VRedirect pages in JSP?
p213
ssI10959424
(dp214
g2
I10959430
sg3
(lp215
(dp216
g6
(lp217
(dp218
g9
S'double i2 = i / 60000;\ntv.setText(new DecimalFormat("##.##").format(i2));'
p219
sg11
I01
sasg12
I116
sg13
I10959430
sg14
I0
sa(dp220
g6
(lp221
sg12
I62
sg13
I10959585
sg14
I1
sa(dp222
g6
(lp223
(dp224
g9
V   double value = 12.3457652133\u000a  value =Double.parseDouble(new DecimalFormat("##.####").format(value));\u000a
p225
sg11
I00
sasg12
I18
sg13
I13853635
sg14
I2
sasg25
VShow only two digit after decimal
p226
ssI15874117
(dp227
g2
I15874176
sg3
(lp228
(dp229
g6
(lp230
(dp231
g9
S'final Handler handler = new Handler();\nhandler.postDelayed(new Runnable() {\n\n    @Override\n    public void run() {\n        buttons[inew][jnew].setBackgroundColor(Color.BLACK);\n    }\n}, 5000);'
p232
sg11
I01
sasg12
I279
sg13
I15874176
sg14
I0
sa(dp233
g6
(lp234
(dp235
g9
S'new CountDownTimer(30000, 1000) {\n\n    public void onFinish() {\n    }\n\n    public void onTick(long millisUntilFinished) {\n    }\n}.start();'
p236
sg11
I01
sasg12
I25
sg13
I28169430
sg14
I1
sa(dp237
g6
(lp238
sg12
I13
sg13
I15950008
sg14
I2
sasg25
VHow to set delay in android?
p239
ssI8119366
(dp240
g2
I8119406
sg3
(lp241
(dp242
g6
(lp243
(dp244
g9
S'package com.rais;\n\nimport java.util.Collections;\nimport java.util.Comparator;\nimport java.util.HashMap;\nimport java.util.LinkedHashMap;\nimport java.util.LinkedList;\nimport java.util.List;\nimport java.util.Map;\nimport java.util.Map.Entry;\n\npublic class SortMapByValue {\n\n    public static boolean ASC = true;\n\n    public static boolean DESC = false;\n\n    public static void main(String[] args) {\n        Map<String, Integer> unsortMap = new HashMap<String, Integer>();\n        unsortMap.put("B", 55);\n        unsortMap.put("A", 80);\n        unsortMap.put("D", 20);\n        unsortMap.put("C", 70);\n        System.out.println("Before sorting......");\n        printMap(unsortMap);\n        System.out.println("After sorting ascending order......");\n        Map<String, Integer> sortedMapAsc = sortByComparator(unsortMap, ASC);\n        printMap(sortedMapAsc);\n        System.out.println("After sorting descindeng order......");\n        Map<String, Integer> sortedMapDesc = sortByComparator(unsortMap, DESC);\n        printMap(sortedMapDesc);\n    }\n\n    private static Map<String, Integer> sortByComparator(Map<String, Integer> unsortMap, final boolean order) {\n        List<Entry<String, Integer>> list = new LinkedList<Entry<String, Integer>>(unsortMap.entrySet());\n        Collections.sort(list, new Comparator<Entry<String, Integer>>() {\n\n            public int compare(Entry<String, Integer> o1, Entry<String, Integer> o2) {\n                if (order) {\n                    return o1.getValue().compareTo(o2.getValue());\n                } else {\n                    return o2.getValue().compareTo(o1.getValue());\n                }\n            }\n        });\n        Map<String, Integer> sortedMap = new LinkedHashMap<String, Integer>();\n        for (Entry<String, Integer> entry : list) {\n            sortedMap.put(entry.getKey(), entry.getValue());\n        }\n        return sortedMap;\n    }\n\n    public static void printMap(Map<String, Integer> map) {\n        for (Entry<String, Integer> entry : map.entrySet()) {\n            System.out.println("Key : " + entry.getKey() + " Value : " + entry.getValue());\n        }\n    }\n}'
p245
sg11
I01
sasg12
I100
sg13
I13913206
sg14
I0
sa(dp246
g6
(lp247
(dp248
g9
S'public LinkedHashMap<Integer, String> sortHashMapByValues(HashMap<Integer, String> passedMap) {\n    List<Integer> mapKeys = new ArrayList<>(passedMap.keySet());\n    List<String> mapValues = new ArrayList<>(passedMap.values());\n    Collections.sort(mapValues);\n    Collections.sort(mapKeys);\n    LinkedHashMap<Integer, String> sortedMap = new LinkedHashMap<>();\n    Iterator<String> valueIt = mapValues.iterator();\n    while (valueIt.hasNext()) {\n        String val = valueIt.next();\n        Iterator<Integer> keyIt = mapKeys.iterator();\n        while (keyIt.hasNext()) {\n            Integer key = keyIt.next();\n            String comp1 = passedMap.get(key);\n            String comp2 = val;\n            if (comp1.equals(comp2)) {\n                keyIt.remove();\n                sortedMap.put(key, val);\n                break;\n            }\n        }\n    }\n    return sortedMap;\n}'
p249
sg11
I01
sasg12
I56
sg13
I8119406
sg14
I1
sa(dp250
g6
(lp251
(dp252
g9
S'Map<Integer, String> sortedMap = unsortedMap.entrySet().stream().sorted(Entry.comparingByValue()).collect(Collectors.toMap(Entry::getKey, Entry::getValue, (e1, e2) -> e1, LinkedHashMap::new));'
p253
sg11
I01
sasg12
I24
sg13
I19671853
sg14
I2
sasg25
VSorting HashMap by values
p254
ssI1816673
(dp255
g2
I1816676
sg3
(lp256
(dp257
g6
(lp258
(dp259
g9
S'File f = new File(filePathString);\nif (f.exists() && !f.isDirectory()) {\n}'
p260
sg11
I01
sasg12
I979
sg13
I1816676
sg14
I0
sa(dp261
g6
(lp262
(dp263
g9
S'new File("path/to/file.txt").isFile();'
p264
sg11
I01
sasg12
I341
sg13
I1816707
sg14
I1
sa(dp265
g6
(lp266
(dp267
g9
Vimport java.nio.file.*;\u000a\u000aPath path = Paths.get(filePathString);\u000a\u000aif (Files.exists(path)) {\u000a  // file exist\u000a}\u000a\u000aif (Files.notExists(path)) {\u000a  // file is not exist\u000a}\u000a
p268
sg11
I00
sa(dp269
g9
S'if (Files.isDirectory(path)) {\n}\nif (Files.isRegularFile(path)) {\n}'
p270
sg11
I01
sasg12
I91
sg13
I18371026
sg14
I2
sasg25
VHow do I check if a file exists in Java?
p271
ssI3551821
(dp272
g2
I3551906
sg3
(lp273
(dp274
g6
(lp275
(dp276
g9
VFile sdCard = Environment.getExternalStorageDirectory();\u000aFile dir = new File (sdCard.getAbsolutePath() + "/dir1/dir2");\u000adir.mkdirs();\u000aFile file = new File(dir, "filename");\u000a\u000aFileOutputStream f = new FileOutputStream(file);\u000a...\u000a
p277
sg11
I00
sasg12
I147
sg13
I3551906
sg14
I0
sa(dp278
g6
(lp279
(dp280
g9
V<?xml version="1.0" encoding="utf-8"?>\u000a<manifest xmlns:android="http://schemas.android.com/apk/res/android"\u000a    package="your.company.package"\u000a    android:versionCode="1"\u000a    android:versionName="0.1">\u000a    <application android:icon="@drawable/icon" android:label="@string/app_name">\u000a        <!-- ... -->\u000a    </application>\u000a    <uses-sdk android:minSdkVersion="7" />\u000a    <uses-permission android:name="android.permission.WRITE_EXTERNAL_STORAGE" />\u000a</manifest> \u000a
p281
sg11
I00
sa(dp282
g9
S'boolean mExternalStorageAvailable = false;\nboolean mExternalStorageWriteable = false;\nString state = Environment.getExternalStorageState();\nif (Environment.MEDIA_MOUNTED.equals(state)) {\n    mExternalStorageAvailable = mExternalStorageWriteable = true;\n} else if (Environment.MEDIA_MOUNTED_READ_ONLY.equals(state)) {\n    mExternalStorageAvailable = true;\n    mExternalStorageWriteable = false;\n} else {\n    mExternalStorageAvailable = mExternalStorageWriteable = false;\n}'
p283
sg11
I01
sa(dp284
g9
S'FileWriter writer = new FileWriter(getExternalStorageDirectory());\nwriter.write("This\\n is\\n an\\n example\\n");\nwriter.flush();\nwriter.close();'
p285
sg11
I01
sasg12
I28
sg13
I20102572
sg14
I1
sa(dp286
g6
(lp287
(dp288
g9
V/**\u000a\u000a* Method to check if user has permissions to write on external storage or not\u000a\u000a*/\u000a\u000apublic static boolean canWriteOnExternalStorage() {\u000a   // get the state of your external storage\u000a   String state = Environment.getExternalStorageState();\u000a   if (Environment.MEDIA_MOUNTED.equals(state)) {\u000a    // if storage is mounted return true\u000a      Log.v(\u201csTag\u201d, \u201cYes, can write to external storage.\u201d);\u000a      return true;\u000a   }\u000a   return false;\u000a}\u000a
p289
sg11
I00
sa(dp290
g9
V// get the path to sdcard\u000aFile sdcard = Environment.getExternalStorageDirectory();\u000a// to this path add a new directory path\u000aFile dir = new File(sdcard.getAbsolutePath() + \u201c/your-dir-name/\u201d);\u000a// create this directory if not already created\u000adir.mkdir();\u000a// create the file in which we will write the contents\u000aFile file = new File(dir, \u201cMy-File-Name.txt\u201d);\u000aFileOutputStream os = outStream = new FileOutputStream(file);\u000aString data = \u201cThis is the content of my file\u201d;\u000aos.write(data.getBytes());\u000aos.close();\u000a
p291
sg11
I00
sa(dp292
g9
V<uses-permission android:name=\u201dandroid.permission.WRITE_EXTERNAL_STORAGE\u201d />\u000a
p293
sg11
I00
sasg12
I2
sg13
I21450850
sg14
I2
sasg25
VAndroid write to sd card folder
p294
ssI7833689
(dp295
g2
Nsg3
(lp296
(dp297
g6
(lp298
(dp299
g9
S'System.out.println("I\\nam\\na\\nboy");\nSystem.out.println("I am a boy".replaceAll("\\\\s+", "\\n"));\nSystem.out.println("I am a boy".replaceAll("\\\\s+", System.getProperty("line.separator")));'
p300
sg11
I01
sasg12
I97
sg13
I7833713
sg14
I0
sa(dp301
g6
(lp302
(dp303
g9
S'String x = "Hello," + System.lineSeparator() + "there";'
p304
sg11
I01
sasg12
I55
sg13
I31599937
sg14
I1
sa(dp305
g6
(lp306
(dp307
g9
S'System.out.println("I\\nam\\na\\nboy");'
p308
sg11
I01
sasg12
I12
sg13
I7833702
sg14
I2
sasg25
VJava String new line
p309
ssI16027229
(dp310
g2
I16027293
sg3
(lp311
(dp312
g6
(lp313
(dp314
g9
S'import java.io.BufferedReader;\nimport java.io.FileReader;\nimport java.io.IOException;'
p315
sg11
I01
sa(dp316
g9
S'String readFile(String fileName) throws IOException {\n    BufferedReader br = new BufferedReader(new FileReader(fileName));\n    try {\n        StringBuilder sb = new StringBuilder();\n        String line = br.readLine();\n        while (line != null) {\n            sb.append(line);\n            sb.append("\\n");\n            line = br.readLine();\n        }\n        return sb.toString();\n    } finally {\n        br.close();\n    }\n}'
p317
sg11
I01
sasg12
I50
sg13
I16027293
sg14
I0
sa(dp318
g6
(lp319
sg12
I1
sg13
I16034306
sg14
I1
sasg25
VReading from a text file and storing in a String
p320
ssI2891361
(dp321
g2
I2891412
sg3
(lp322
(dp323
g6
(lp324
(dp325
g9
S'SimpleDateFormat isoFormat = new SimpleDateFormat("yyyy-MM-dd\'T\'HH:mm:ss");\nisoFormat.setTimeZone(TimeZone.getTimeZone("UTC"));\nDate date = isoFormat.parse("2010-05-23T09:01:02");'
p326
sg11
I01
sasg12
I197
sg13
I2891412
sg14
I0
sa(dp327
g6
(lp328
sg12
I113
sg13
I2892156
sg14
I1
sa(dp329
g6
(lp330
(dp331
g9
S'Date date1 = new Date();\nSystem.out.println(date1);\nTimeZone.setDefault(TimeZone.getTimeZone("UTC"));\nDate date2 = new Date();\nSystem.out.println(date2);'
p332
sg11
I01
sa(dp333
g9
VThu Sep 05 10:11:12 EDT 2013\u000aThu Sep 05 14:11:12 UTC 2013\u000a
p334
sg11
I00
sasg12
I46
sg13
I18638742
sg14
I2
sasg25
VHow to set time zone of a java.util.Date?
p335
ssI7074402
(dp336
g2
I7074420
sg3
(lp337
(dp338
g6
(lp339
(dp340
g9
Vpublic void add(int index, E element)\u000a
p341
sg11
I00
sa(dp342
g9
Vpublic E set(int index, E element)\u000a
p343
sg11
I00
sasg12
I104
sg13
I7074420
sg14
I0
sa(dp344
g6
(lp345
(dp346
g9
S'ArrayList<Integer> str = new ArrayList<Integer>();\nstr.add(0);\nstr.add(1);\nstr.add(2);\nstr.add(3);\nstr.add(1, 11);\nstr.add(2, 12);'
p347
sg11
I01
sasg12
I25
sg13
I20904059
sg14
I1
sa(dp348
g6
(lp349
sg12
I1
sg13
I16850396
sg14
I2
sasg25
VHow to insert an object in an ArrayList at a specific position
p350
ssI1378920
(dp351
g2
I1379002
sg3
(lp352
(dp353
g6
(lp354
(dp355
g9
S'CloseableHttpClient httpClient = HttpClients.createDefault();\nHttpPost uploadFile = new HttpPost("...");\nMultipartEntityBuilder builder = MultipartEntityBuilder.create();\nbuilder.addTextBody("field1", "yes", ContentType.TEXT_PLAIN);\nFile f = new File("[/path/to/upload]");\nbuilder.addBinaryBody("file", new FileInputStream(f), ContentType.APPLICATION_OCTET_STREAM, f.getName());\nHttpEntity multipart = builder.build();\nuploadFile.setEntity(multipart);\nCloseableHttpResponse response = httpClient.execute(uploadFile);\nHttpEntity responseEntity = response.getEntity();'
p356
sg11
I01
sa(dp357
g9
S'HttpClient httpclient = new DefaultHttpClient();\nHttpPost httppost = new HttpPost(url);\nFileBody bin = new FileBody(new File(fileName));\nStringBody comment = new StringBody("Filename: " + fileName);\nMultipartEntity reqEntity = new MultipartEntity();\nreqEntity.addPart("bin", bin);\nreqEntity.addPart("comment", comment);\nhttppost.setEntity(reqEntity);\nHttpResponse response = httpclient.execute(httppost);\nHttpEntity resEntity = response.getEntity();'
p358
sg11
I01
sasg12
I121
sg13
I1379002
sg14
I0
sa(dp359
g6
(lp360
(dp361
g9
S'HttpClient httpclient = new DefaultHttpClient();\nHttpPost httpPost = new HttpPost(url);\nFileBody uploadFilePart = new FileBody(uploadFile);\nMultipartEntity reqEntity = new MultipartEntity();\nreqEntity.addPart("upload-file", uploadFilePart);\nhttpPost.setEntity(reqEntity);\nHttpResponse response = httpclient.execute(httpPost);'
p362
sg11
I01
sa(dp363
g9
V<dependency>\u000a  <groupId>org.apache.httpcomponents</groupId>\u000a  <artifactId>httpclient</artifactId>\u000a  <version>4.0.1</version>\u000a  <scope>compile</scope>\u000a</dependency>\u000a<dependency>\u000a  <groupId>org.apache.httpcomponents</groupId>\u000a  <artifactId>httpmime</artifactId>\u000a  <version>4.0.1</version>\u000a  <scope>compile</scope>\u000a</dependency>\u000a
p364
sg11
I00
sasg12
I33
sg13
I3003402
sg14
I1
sa(dp365
g6
(lp366
(dp367
g9
Vhttpclient-4.2.4:      423KB\u000ahttpmime-4.2.4:         26KB\u000ahttpcore-4.2.4:        222KB\u000acommons-codec-1.6:     228KB\u000acommons-logging-1.1.1:  60KB\u000aSum:                   959KB\u000a\u000ahttpmime-4.2.4:         26KB\u000ahttpcore-4.2.4:        222KB\u000aSum:                   248KB\u000a
p368
sg11
I00
sa(dp369
g9
VHttpURLConnection connection = (HttpURLConnection) url.openConnection();\u000aconnection.setDoOutput(true);\u000aconnection.setRequestMethod("POST");\u000a\u000aFileBody fileBody = new FileBody(new File(fileName));\u000aMultipartEntity multipartEntity = new MultipartEntity(HttpMultipartMode.STRICT);\u000amultipartEntity.addPart("file", fileBody);\u000a\u000aconnection.setRequestProperty("Content-Type", multipartEntity.getContentType().getValue());\u000aOutputStream out = connection.getOutputStream();\u000atry {\u000a    multipartEntity.writeTo(out);\u000a} finally {\u000a    out.close();\u000a}\u000aint status = connection.getResponseCode();\u000a...\u000a
p370
sg11
I00
sa(dp371
g9
V<dependency>\u000a    <groupId>org.apache.httpcomponents</groupId>\u000a    <artifactId>httpmime</artifactId>\u000a    <version>4.2.4</version>\u000a</dependency>\u000a
p372
sg11
I00
sasg12
I13
sg13
I16241207
sg14
I2
sasg25
VHow can I make a multipart/form-data POST request using Java?
p373
ssI6349421
(dp374
g2
I6349488
sg3
(lp375
(dp376
g6
(lp377
(dp378
g9
Vimport com.fasterxml.jackson.databind.ObjectMapper;// in play 2.3\u000aObjectMapper mapper = new ObjectMapper();\u000a
p379
sg11
I00
sa(dp380
g9
S'MyClass[] myObjects = mapper.readValue(json, MyClass[].class);'
p381
sg11
I01
sa(dp382
g9
S'List<MyClass> myObjects = mapper.readValue(jsonInput, new TypeReference<List<MyClass>>() {\n});'
p383
sg11
I01
sa(dp384
g9
S'List<MyClass> myObjects = mapper.readValue(jsonInput, mapper.getTypeFactory().constructCollectionType(List.class, MyClass.class));'
p385
sg11
I01
sasg12
I840
sg13
I6349488
sg14
I0
sa(dp386
g6
(lp387
(dp388
g9
S'List<MyClass> myObjects = Arrays.asList(mapper.readValue(json, MyClass[].class));'
p389
sg11
I01
sasg12
I77
sg13
I28982591
sg14
I1
sa(dp390
g6
(lp391
(dp392
g9
S'try {\n    ObjectMapper mapper = new ObjectMapper();\n    JsonFactory f = new JsonFactory();\n    List<User> lstUser = null;\n    JsonParser jp = f.createJsonParser(new File("C:\\\\maven\\\\user.json"));\n    TypeReference<List<User>> tRef = new TypeReference<List<User>>() {\n    };\n    lstUser = mapper.readValue(jp, tRef);\n    for (User user : lstUser) {\n        System.out.println(user.toString());\n    }\n} catch (JsonGenerationException e) {\n    e.printStackTrace();\n} catch (JsonMappingException e) {\n    e.printStackTrace();\n} catch (IOException e) {\n    e.printStackTrace();\n}'
p393
sg11
I01
sasg12
I2
sg13
I29749600
sg14
I2
sasg25
VHow to use Jackson to deserialise an array of objects
p394
ssI5283444
(dp395
g2
I5283753
sg3
(lp396
(dp397
g6
(lp398
(dp399
g9
S'String str = Arrays.toString(arr);'
p400
sg11
I01
sa(dp401
g9
S'StringBuilder builder = new StringBuilder();\nfor (String s : arr) {\n    builder.append(s);\n}\nString str = builder.toString();'
p402
sg11
I01
sa(dp403
g9
S'String str = String.join(",", arr);'
p404
sg11
I01
sasg12
I247
sg13
I5283753
sg14
I0
sa(dp405
g6
(lp406
(dp407
g9
S'String joinedString = StringUtils.join(new Object[] { "a", "b", 1 }, "-");\nSystem.out.println(joinedString);'
p408
sg11
I01
sa(dp409
g9
Va-b-1\u000a
p410
sg11
I00
sasg12
I97
sg13
I5283468
sg14
I1
sa(dp411
g6
(lp412
(dp413
g9
S'Joiner.on(", ").skipNulls().join("Harry", null, "Ron", "Hermione");'
p414
sg11
I01
sa(dp415
g9
S'new String("Harry, Ron, Hermione");'
p416
sg11
I01
sa(dp417
g9
S'String.join(", ", "Harry", "Ron", "Hermione");'
p418
sg11
I01
sasg12
I32
sg13
I5283581
sg14
I2
sasg25
VConvert array of strings into a string in Java
p419
ssI18441846
(dp420
g2
I18441978
sg3
(lp421
(dp422
g6
(lp423
(dp424
g9
VList<Fruit> fruits= new ArrayList<Fruit>();\u000a\u000aFruit fruit;\u000afor(int i = 0; i < 100; i++)\u000a{\u000a  fruit = new Fruit();\u000a  fruit.setname(...);\u000a  fruits.add(fruit);\u000a}\u000a\u000a// Sorting\u000aCollections.sort(fruits, new Comparator<Fruit>() {\u000a        @Override\u000a        public int compare(Fruit fruit2, Fruit fruit1)\u000a        {\u000a\u000a            return  fruit1.fruitName.compareTo(fruit2.fruitName);\u000a        }\u000a    });\u000a
p425
sg11
I00
sasg12
I340
sg13
I18441978
sg14
I0
sa(dp426
g6
(lp427
(dp428
g9
Vpublic class Fruit implements Comparable<Fruit> {\u000a
p429
sg11
I00
sa(dp430
g9
S'@Override\npublic int compareTo(Fruit fruit) {\n}'
p431
sg11
I01
sa(dp432
g9
S'Collections.sort(fruitList);'
p433
sg11
I01
sasg12
I79
sg13
I18441875
sg14
I1
sa(dp434
g6
(lp435
(dp436
g9
S'BeanComparator fieldComparator = new BeanComparator("fruitName");\nCollections.sort(fruits, fieldComparator);'
p437
sg11
I01
sasg12
I11
sg13
I18441879
sg14
I2
sasg25
VHow to sort an ArrayList in Java
p438
ssI1519736
(dp439
g2
I1520212
sg3
(lp440
(dp441
g6
(lp442
(dp443
g9
S'import java.util.*;\nimport java.util.concurrent.ThreadLocalRandom;\n\nclass Test {\n\n    public static void main(String[] args) {\n        int[] solutionArray = { 1, 2, 3, 4, 5, 6, 16, 15, 14, 13, 12, 11 };\n        shuffleArray(solutionArray);\n        for (int i = 0; i < solutionArray.length; i++) {\n            System.out.print(solutionArray[i] + " ");\n        }\n        System.out.println();\n    }\n\n    static void shuffleArray(int[] ar) {\n        Random rnd = ThreadLocalRandom.current();\n        for (int i = ar.length - 1; i > 0; i--) {\n            int index = rnd.nextInt(i + 1);\n            int a = ar[index];\n            ar[index] = ar[i];\n            ar[i] = a;\n        }\n    }\n}'
p444
sg11
I01
sasg12
I203
sg13
I1520212
sg14
I0
sa(dp445
g6
(lp446
(dp447
g9
S'List<Integer> solution = new ArrayList<>();\nfor (int i = 1; i <= 6; i++) {\n    solution.add(i);\n}\nCollections.shuffle(solution);'
p448
sg11
I01
sasg12
I100
sg13
I3732080
sg14
I1
sa(dp449
g6
(lp450
(dp451
g9
S'private static void shuffleArray(int[] array) {\n    int index;\n    Random random = new Random();\n    for (int i = array.length - 1; i > 0; i--) {\n        index = random.nextInt(i + 1);\n        if (index != i) {\n            array[index] ^= array[i];\n            array[i] ^= array[index];\n            array[index] ^= array[i];\n        }\n    }\n}'
p452
sg11
I01
sa(dp453
g9
S'private static void shuffleArray(int[] array) {\n    int index, temp;\n    Random random = new Random();\n    for (int i = array.length - 1; i > 0; i--) {\n        index = random.nextInt(i + 1);\n        temp = array[index];\n        array[index] = array[i];\n        array[i] = temp;\n    }\n}'
p454
sg11
I01
sasg12
I71
sg13
I18456998
sg14
I2
sasg25
VRandom shuffling of an array
p455
ssI12678781
(dp456
g2
Nsg3
(lp457
(dp458
g6
(lp459
(dp460
g9
S'List<Integer> list = Arrays.asList(1, 4, 9, 16, 9, 7, 4, 9, 11);\nSystem.out.println(list);\nCollections.reverse(list);\nSystem.out.println(list);'
p461
sg11
I01
sa(dp462
g9
V[1, 4, 9, 16, 9, 7, 4, 9, 11]\u000a[11, 9, 4, 7, 9, 16, 9, 4, 1]\u000a
p463
sg11
I00
sasg12
I61
sg13
I12678806
sg14
I0
sa(dp464
g6
(lp465
(dp466
g9
S'Collections.reverse(Arrays.asList(array));'
p467
sg11
I01
sasg12
I49
sg13
I12678867
sg14
I1
sa(dp468
g6
(lp469
(dp470
g9
S'for (i = 0; i < array.length / 2; i++) {\n    int temp = array[i];\n    array[i] = array[array.length - 1 - i];\n    array[array.length - 1 - i] = temp;\n}'
p471
sg11
I01
sasg12
I25
sg13
I12678906
sg14
I2
sasg25
VReversing an Array in Java
p472
ssI10796160
(dp473
g2
I10796174
sg3
(lp474
(dp475
g6
(lp476
(dp477
g9
S'test.split("\\\\|");'
p478
sg11
I01
sa(dp479
g9
S'test.split(Pattern.quote("|"));'
p480
sg11
I01
sasg12
I272
sg13
I10796174
sg14
I0
sa(dp481
g6
(lp482
(dp483
g9
S'string.split(Pattern.quote("|"));'
p484
sg11
I01
sasg12
I20
sg13
I21025279
sg14
I1
sa(dp485
g6
(lp486
(dp487
g9
S'public static void main(String[] args) {\n    String test = "A|B|C||D";\n    String[] result = test.split("\\\\|");\n    for (String s : result) {\n        System.out.println(">" + s + "<");\n    }\n}'
p488
sg11
I01
sasg12
I2
sg13
I39266797
sg14
I2
sasg25
VSplitting a Java String by the pipe symbol using split("|")
p489
ssI2938502
(dp490
g2
I2938787
sg3
(lp491
(dp492
g6
(lp493
(dp494
g9
V    public class CallAPI extends AsyncTask<String, String, String> {\u000a\u000a        public CallAPI(){\u000a            //set context variables if required\u000a        }\u000a\u000a        @Override\u000a        protected void onPreExecute() {\u000a            super.onPreExecute();\u000a        }\u000a\u000a\u000a         @Override\u000a         protected String doInBackground(String... params) {\u000a\u000a            String urlString = params[0]; // URL to call\u000a\u000a            String resultToDisplay = "";\u000a\u000a            InputStream in = null;\u000a            try {\u000a\u000a                URL url = new URL(urlString);\u000a\u000a                HttpURLConnection urlConnection = (HttpURLConnection) url.openConnection();\u000a\u000a                in = new BufferedInputStream(urlConnection.getInputStream());\u000a\u000a\u000a            } catch (Exception e) {\u000a\u000a                System.out.println(e.getMessage());\u000a\u000a                return e.getMessage();\u000a\u000a            }\u000a\u000a            try {\u000a                resultToDisplay = IOUtils.toString(in, "UTF-8");\u000a                //to [convert][1] byte stream to a string \u000a            } \u000a            catch (IOException e) {\u000a                e.printStackTrace();\u000a            }\u000a            return resultToDisplay;\u000a        }\u000a\u000a\u000a         @Override\u000a        protected void onPostExecute(String result) {\u000a            //Update the UI\u000a        }\u000a
p495
sg11
I00
sa(dp496
g9
S'public void postData() {\n    HttpClient httpclient = new DefaultHttpClient();\n    HttpPost httppost = new HttpPost("http://www.yoursite.com/script.php");\n    try {\n        List<NameValuePair> nameValuePairs = new ArrayList<NameValuePair>(2);\n        nameValuePairs.add(new BasicNameValuePair("id", "12345"));\n        nameValuePairs.add(new BasicNameValuePair("stringdata", "Hi"));\n        httppost.setEntity(new UrlEncodedFormEntity(nameValuePairs));\n        HttpResponse response = httpclient.execute(httppost);\n    } catch (ClientProtocolException e) {\n    } catch (IOException e) {\n    }\n}'
p497
sg11
I01
sasg12
I264
sg13
I2938787
sg14
I0
sa(dp498
g6
(lp499
(dp500
g9
S'public String performPostCall(String requestURL, HashMap<String, String> postDataParams) {\n    URL url;\n    String response = "";\n    try {\n        url = new URL(requestURL);\n        HttpURLConnection conn = (HttpURLConnection) url.openConnection();\n        conn.setReadTimeout(15000);\n        conn.setConnectTimeout(15000);\n        conn.setRequestMethod("GET");\n        conn.setDoInput(true);\n        conn.setDoOutput(true);\n        OutputStream os = conn.getOutputStream();\n        BufferedWriter writer = new BufferedWriter(new OutputStreamWriter(os, "UTF-8"));\n        writer.write(getPostDataString(postDataParams));\n        writer.flush();\n        writer.close();\n        os.close();\n        int responseCode = conn.getResponseCode();\n        if (responseCode == HttpsURLConnection.HTTP_OK) {\n            String line;\n            BufferedReader br = new BufferedReader(new InputStreamReader(conn.getInputStream()));\n            while ((line = br.readLine()) != null) {\n                response += line;\n            }\n        } else {\n            response = "";\n        }\n    } catch (Exception e) {\n        e.printStackTrace();\n    }\n    return response;\n}'
p501
sg11
I01
sa(dp502
g9
S'private String getPostDataString(HashMap<String, String> params) throws UnsupportedEncodingException {\n    StringBuilder result = new StringBuilder();\n    boolean first = true;\n    for (Map.Entry<String, String> entry : params.entrySet()) {\n        if (first)\n            first = false;\n        else\n            result.append("&");\n        result.append(URLEncoder.encode(entry.getKey(), "UTF-8"));\n        result.append("=");\n        result.append(URLEncoder.encode(entry.getValue(), "UTF-8"));\n    }\n    return result.toString();\n}'
p503
sg11
I01
sa(dp504
g9
S'conn.setRequestMethod("POST");'
p505
sg11
I01
sa(dp506
g9
S'public class Empty extends AsyncTask<Void, Void, Boolean> {\n\n    String urlString = "http://www.yoursite.com/";\n\n    private final String TAG = "post json example";\n\n    private Context context;\n\n    private int advertisementId;\n\n    public Empty(Context contex, int advertisementId) {\n        this.context = contex;\n        this.advertisementId = advertisementId;\n    }\n\n    @Override\n    protected void onPreExecute() {\n        Log.e(TAG, "1 - RequestVoteTask is about to start...");\n    }\n\n    @Override\n    protected Boolean doInBackground(Void... params) {\n        boolean status = false;\n        String response = "";\n        Log.e(TAG, "2 - pre Request to response...");\n        try {\n            response = performPostCall(urlString, new HashMap<String, String>() {\n\n                private static final long serialVersionUID = 1L;\n\n                {\n                    put("Accept", "application/json");\n                    put("Content-Type", "application/json");\n                }\n            });\n            Log.e(TAG, "3 - give Response...");\n            Log.e(TAG, "4 " + response.toString());\n        } catch (Exception e) {\n            Log.e(TAG, "Error ...");\n        }\n        Log.e(TAG, "5 - after Response...");\n        if (!response.equalsIgnoreCase("")) {\n            try {\n                Log.e(TAG, "6 - response !empty...");\n                JSONObject jRoot = new JSONObject(response);\n                JSONObject d = jRoot.getJSONObject("d");\n                int ResultType = d.getInt("ResultType");\n                Log.e("ResultType", ResultType + "");\n                if (ResultType == 1) {\n                    status = true;\n                }\n            } catch (JSONException e) {\n                Log.e(TAG, "Error " + e.getMessage());\n            } finally {\n            }\n        } else {\n            Log.e(TAG, "6 - response is empty...");\n            status = false;\n        }\n        return status;\n    }\n\n    @Override\n    protected void onPostExecute(Boolean result) {\n        Log.e(TAG, "7 - onPostExecute ...");\n        if (result) {\n            Log.e(TAG, "8 - Update UI ...");\n        } else {\n            Log.e(TAG, "8 - Finish ...");\n        }\n    }\n\n    public String performPostCall(String requestURL, HashMap<String, String> postDataParams) {\n        URL url;\n        String response = "";\n        try {\n            url = new URL(requestURL);\n            HttpURLConnection conn = (HttpURLConnection) url.openConnection();\n            conn.setReadTimeout(context.getResources().getInteger(R.integer.maximum_timeout_to_server));\n            conn.setConnectTimeout(context.getResources().getInteger(R.integer.maximum_timeout_to_server));\n            conn.setRequestMethod("POST");\n            conn.setDoInput(true);\n            conn.setDoOutput(true);\n            conn.setRequestProperty("Content-Type", "application/json");\n            Log.e(TAG, "11 - url : " + requestURL);\n            JSONObject root = new JSONObject();\n            String token = Static.getPrefsToken(context);\n            root.put("securityInfo", Static.getSecurityInfo(context));\n            root.put("advertisementId", advertisementId);\n            Log.e(TAG, "12 - root : " + root.toString());\n            String str = root.toString();\n            byte[] outputBytes = str.getBytes("UTF-8");\n            OutputStream os = conn.getOutputStream();\n            os.write(outputBytes);\n            int responseCode = conn.getResponseCode();\n            Log.e(TAG, "13 - responseCode : " + responseCode);\n            if (responseCode == HttpsURLConnection.HTTP_OK) {\n                Log.e(TAG, "14 - HTTP_OK");\n                String line;\n                BufferedReader br = new BufferedReader(new InputStreamReader(conn.getInputStream()));\n                while ((line = br.readLine()) != null) {\n                    response += line;\n                }\n            } else {\n                Log.e(TAG, "14 - False - HTTP_OK");\n                response = "";\n            }\n        } catch (Exception e) {\n            e.printStackTrace();\n        }\n        return response;\n    }\n}'
p507
sg11
I01
sasg12
I64
sg13
I31357311
sg14
I1
sa(dp508
g6
(lp509
(dp510
g9
S'public class MyHttpPostProjectActivity extends Activity implements OnClickListener {\n\n    private EditText usernameEditText;\n\n    private EditText passwordEditText;\n\n    private Button sendPostReqButton;\n\n    private Button clearButton;\n\n    @Override\n    public void onCreate(Bundle savedInstanceState) {\n        super.onCreate(savedInstanceState);\n        setContentView(R.layout.login);\n        usernameEditText = (EditText) findViewById(R.id.login_username_editText);\n        passwordEditText = (EditText) findViewById(R.id.login_password_editText);\n        sendPostReqButton = (Button) findViewById(R.id.login_sendPostReq_button);\n        sendPostReqButton.setOnClickListener(this);\n        clearButton = (Button) findViewById(R.id.login_clear_button);\n        clearButton.setOnClickListener(this);\n    }\n\n    @Override\n    public void onClick(View v) {\n        if (v.getId() == R.id.login_clear_button) {\n            usernameEditText.setText("");\n            passwordEditText.setText("");\n            passwordEditText.setCursorVisible(false);\n            passwordEditText.setFocusable(false);\n            usernameEditText.setCursorVisible(true);\n            passwordEditText.setFocusable(true);\n        } else if (v.getId() == R.id.login_sendPostReq_button) {\n            String givenUsername = usernameEditText.getEditableText().toString();\n            String givenPassword = passwordEditText.getEditableText().toString();\n            System.out.println("Given username :" + givenUsername + " Given password :" + givenPassword);\n            sendPostRequest(givenUsername, givenPassword);\n        }\n    }\n\n    private void sendPostRequest(String givenUsername, String givenPassword) {\n        class SendPostReqAsyncTask extends AsyncTask<String, Void, String> {\n\n            @Override\n            protected String doInBackground(String... params) {\n                String paramUsername = params[0];\n                String paramPassword = params[1];\n                System.out.println("*** doInBackground ** paramUsername " + paramUsername + " paramPassword :" + paramPassword);\n                HttpClient httpClient = new DefaultHttpClient();\n                HttpPost httpPost = new HttpPost("http://www.nirmana.lk/hec/android/postLogin.php");\n                BasicNameValuePair usernameBasicNameValuePair = new BasicNameValuePair("paramUsername", paramUsername);\n                BasicNameValuePair passwordBasicNameValuePAir = new BasicNameValuePair("paramPassword", paramPassword);\n                List<NameValuePair> nameValuePairList = new ArrayList<NameValuePair>();\n                nameValuePairList.add(usernameBasicNameValuePair);\n                nameValuePairList.add(passwordBasicNameValuePAir);\n                try {\n                    UrlEncodedFormEntity urlEncodedFormEntity = new UrlEncodedFormEntity(nameValuePairList);\n                    httpPost.setEntity(urlEncodedFormEntity);\n                    try {\n                        HttpResponse httpResponse = httpClient.execute(httpPost);\n                        InputStream inputStream = httpResponse.getEntity().getContent();\n                        InputStreamReader inputStreamReader = new InputStreamReader(inputStream);\n                        BufferedReader bufferedReader = new BufferedReader(inputStreamReader);\n                        StringBuilder stringBuilder = new StringBuilder();\n                        String bufferedStrChunk = null;\n                        while ((bufferedStrChunk = bufferedReader.readLine()) != null) {\n                            stringBuilder.append(bufferedStrChunk);\n                        }\n                        return stringBuilder.toString();\n                    } catch (ClientProtocolException cpe) {\n                        System.out.println("First Exception caz of HttpResponese :" + cpe);\n                        cpe.printStackTrace();\n                    } catch (IOException ioe) {\n                        System.out.println("Second Exception caz of HttpResponse :" + ioe);\n                        ioe.printStackTrace();\n                    }\n                } catch (UnsupportedEncodingException uee) {\n                    System.out.println("An Exception given because of UrlEncodedFormEntity argument :" + uee);\n                    uee.printStackTrace();\n                }\n                return null;\n            }\n\n            @Override\n            protected void onPostExecute(String result) {\n                super.onPostExecute(result);\n                if (result.equals("working")) {\n                    Toast.makeText(getApplicationContext(), "HTTP POST is working...", Toast.LENGTH_LONG).show();\n                } else {\n                    Toast.makeText(getApplicationContext(), "Invalid POST req...", Toast.LENGTH_LONG).show();\n                }\n            }\n        }\n        SendPostReqAsyncTask sendPostReqAsyncTask = new SendPostReqAsyncTask();\n        sendPostReqAsyncTask.execute(givenUsername, givenPassword);\n    }\n}'
p511
sg11
I01
sasg12
I41
sg13
I12382879
sg14
I2
sasg25
VSending POST data in Android
p512
ssI15940234
(dp513
g2
I15942217
sg3
(lp514
(dp515
g6
(lp516
(dp517
g9
S'import javax.xml.soap.*;\nimport javax.xml.transform.*;\nimport javax.xml.transform.stream.*;\n\npublic class SOAPClientSAAJ {\n\n    public static void main(String[] args) {\n        try {\n            SOAPConnectionFactory soapConnectionFactory = SOAPConnectionFactory.newInstance();\n            SOAPConnection soapConnection = soapConnectionFactory.createConnection();\n            String url = "http://ws.cdyne.com/emailverify/Emailvernotestemail.asmx";\n            SOAPMessage soapResponse = soapConnection.call(createSOAPRequest(), url);\n            printSOAPResponse(soapResponse);\n            soapConnection.close();\n        } catch (Exception e) {\n            System.err.println("Error occurred while sending SOAP Request to Server");\n            e.printStackTrace();\n        }\n    }\n\n    private static SOAPMessage createSOAPRequest() throws Exception {\n        MessageFactory messageFactory = MessageFactory.newInstance();\n        SOAPMessage soapMessage = messageFactory.createMessage();\n        SOAPPart soapPart = soapMessage.getSOAPPart();\n        String serverURI = "http://ws.cdyne.com/";\n        SOAPEnvelope envelope = soapPart.getEnvelope();\n        envelope.addNamespaceDeclaration("example", serverURI);\n        SOAPBody soapBody = envelope.getBody();\n        SOAPElement soapBodyElem = soapBody.addChildElement("VerifyEmail", "example");\n        SOAPElement soapBodyElem1 = soapBodyElem.addChildElement("email", "example");\n        soapBodyElem1.addTextNode("mutantninja@gmail.com");\n        SOAPElement soapBodyElem2 = soapBodyElem.addChildElement("LicenseKey", "example");\n        soapBodyElem2.addTextNode("123");\n        MimeHeaders headers = soapMessage.getMimeHeaders();\n        headers.addHeader("SOAPAction", serverURI + "VerifyEmail");\n        soapMessage.saveChanges();\n        System.out.print("Request SOAP Message = ");\n        soapMessage.writeTo(System.out);\n        System.out.println();\n        return soapMessage;\n    }\n\n    private static void printSOAPResponse(SOAPMessage soapResponse) throws Exception {\n        TransformerFactory transformerFactory = TransformerFactory.newInstance();\n        Transformer transformer = transformerFactory.newTransformer();\n        Source sourceContent = soapResponse.getSOAPPart().getContent();\n        System.out.print("\\nResponse SOAP Message = ");\n        StreamResult result = new StreamResult(System.out);\n        transformer.transform(sourceContent, result);\n    }\n}'
p518
sg11
I01
sasg12
I205
sg13
I15942217
sg14
I0
sa(dp519
g6
(lp520
(dp521
g9
V$ ./wsdl2java -p com.mynamespace.for.the.api.objects -autoNameResolution http://www.someurl.com/DefaultWebService?wsdl\u000a
p522
sg11
I00
sa(dp523
g9
S'DefaultWebService defaultWebService = new DefaultWebService();\nString res = defaultWebService.getDefaultWebServiceHttpSoap11Endpoint().login("webservice", "dadsadasdasd");\nSystem.out.println(res);'
p524
sg11
I01
sasg12
I0
sg13
I40679616
sg14
I1
sasg25
VHow to do a SOAP Web Service call from Java class?
p525
ssI7347856
(dp526
g2
I7347895
sg3
(lp527
(dp528
g6
(lp529
(dp530
g9
S'List<String> myList = new ArrayList<String>(Arrays.asList(s.split(",")));'
p531
sg11
I01
sa(dp532
g9
S'String s = "lorem,ipsum,dolor,sit,amet";\nList<String> myList = new ArrayList<String>(Arrays.asList(s.split(",")));\nSystem.out.println(myList);'
p533
sg11
I01
sasg12
I138
sg13
I7347895
sg14
I0
sa(dp534
g6
(lp535
(dp536
g9
S'String s1 = "[a,b,c,d]";\nString replace = s1.replace("[", "");\nSystem.out.println(replace);\nString replace1 = replace.replace("]", "");\nSystem.out.println(replace1);\nList<String> myList = new ArrayList<String>(Arrays.asList(replace1.split(",")));\nSystem.out.println(myList.toString());'
p537
sg11
I01
sasg12
I18
sg13
I7347999
sg14
I1
sa(dp538
g6
(lp539
(dp540
g9
S'public ArrayList<Character> convertStringToArraylist(String str) {\n    ArrayList<Character> charList = new ArrayList<Character>();\n    for (int i = 0; i < str.length(); i++) {\n        charList.add(str.charAt(i));\n    }\n    return charList;\n}'
p541
sg11
I01
sa(dp542
g9
S'public static ArrayList<String> convertStringArrayToArraylist(String[] strArr) {\n    ArrayList<String> stringList = new ArrayList<String>();\n    for (String s : strArr) {\n        stringList.add(s);\n    }\n    return stringList;\n}'
p543
sg11
I01
sasg12
I2
sg13
I7348024
sg14
I2
sasg25
VHow to convert a String into an ArrayList?
p544
ssI672916
(dp545
g2
Nsg3
(lp546
(dp547
g6
(lp548
(dp549
g9
S'BufferedImage bimg = ImageIO.read(new File(filename));\nint width = bimg.getWidth();\nint height = bimg.getHeight();'
p550
sg11
I01
sasg12
I205
sg13
I9083914
sg14
I0
sa(dp551
g6
(lp552
(dp553
g9
S'public static Dimension getImageDimension(File imgFile) throws IOException {\n    int pos = imgFile.getName().lastIndexOf(".");\n    if (pos == -1)\n        throw new IOException("No extension for file: " + imgFile.getAbsolutePath());\n    String suffix = imgFile.getName().substring(pos + 1);\n    Iterator<ImageReader> iter = ImageIO.getImageReadersBySuffix(suffix);\n    while (iter.hasNext()) {\n        ImageReader reader = iter.next();\n        try {\n            ImageInputStream stream = new FileImageInputStream(imgFile);\n            reader.setInput(stream);\n            int width = reader.getWidth(reader.getMinIndex());\n            int height = reader.getHeight(reader.getMinIndex());\n            return new Dimension(width, height);\n        } catch (IOException e) {\n            log.warn("Error reading: " + imgFile.getAbsolutePath(), e);\n        } finally {\n            reader.dispose();\n        }\n    }\n    throw new IOException("Not a known image file: " + imgFile.getAbsolutePath());\n}'
p554
sg11
I01
sasg12
I36
sg13
I12164026
sg14
I1
sa(dp555
g6
(lp556
(dp557
g9
Vprivate Dimension getImageDim(final String path) {\u000a    Dimension result = null;\u000a    String suffix = this.getFileSuffix(path);\u000a    Iterator<ImageReader> iter = ImageIO.getImageReadersBySuffix(suffix);\u000a    if (iter.hasNext()) {\u000a        ImageReader reader = iter.next();\u000a        try {\u000a            ImageInputStream stream = new FileImageInputStream(new File(path));\u000a            reader.setInput(stream);\u000a            int width = reader.getWidth(reader.getMinIndex());\u000a            int height = reader.getHeight(reader.getMinIndex());\u000a            result = new Dimension(width, height);\u000a        } catch (IOException e) {\u000a            log(e.getMessage());\u000a        } finally {\u000a            reader.dispose();\u000a        }\u000a    } else {\u000a        log("No reader found for given format: " + suffix));\u000a    }\u000a    return result;\u000a}\u000a
p558
sg11
I00
sa(dp559
g9
S'private String getFileSuffix(final String path) {\n    String result = null;\n    if (path != null) {\n        result = "";\n        if (path.lastIndexOf(\'.\') != -1) {\n            result = path.substring(path.lastIndexOf(\'.\'));\n            if (result.startsWith(".")) {\n                result = result.substring(1);\n            }\n        }\n    }\n    return result;\n}'
p560
sg11
I01
sasg12
I35
sg13
I2911772
sg14
I2
sasg25
VHow to get image height and width using java?
p561
ssI3806062
(dp562
g2
I3806154
sg3
(lp563
(dp564
g6
(lp565
(dp566
g9
S'List<Integer> list = new ArrayList<Integer>();\nFile file = new File("file.txt");\nBufferedReader reader = null;\ntry {\n    reader = new BufferedReader(new FileReader(file));\n    String text = null;\n    while ((text = reader.readLine()) != null) {\n        list.add(Integer.parseInt(text));\n    }\n} catch (FileNotFoundException e) {\n    e.printStackTrace();\n} catch (IOException e) {\n    e.printStackTrace();\n} finally {\n    try {\n        if (reader != null) {\n            reader.close();\n        }\n    } catch (IOException e) {\n    }\n}\nSystem.out.println(list);'
p567
sg11
I01
sasg12
I42
sg13
I3806154
sg14
I0
sa(dp568
g6
(lp569
(dp570
g9
S'Path filePath = Paths.get("file.txt");\nScanner scanner = new Scanner(filePath);\nList<Integer> integers = new ArrayList<>();\nwhile (scanner.hasNext()) {\n    if (scanner.hasNextInt()) {\n        integers.add(scanner.nextInt());\n    } else {\n        scanner.next();\n    }\n}'
p571
sg11
I01
sasg12
I9
sg13
I24388473
sg14
I1
sa(dp572
g6
(lp573
(dp574
g9
S'try {\n    BufferedReader br = new BufferedReader(new FileReader("textfile.txt"));\n    String strLine;\n    while ((strLine = br.readLine()) != null) {\n        System.out.println(strLine);\n    }\n    in.close();\n} catch (Exception e) {\n    System.err.println("Error: " + e.getMessage());\n} finally {\n    in.close();\n}'
p575
sg11
I01
sa(dp576
g9
S'System.out.println(strLine);'
p577
sg11
I01
sa(dp578
g9
S'try {\n    int i = Integer.parseInt(strLine);\n} catch (NumberFormatException npe) {\n}'
p579
sg11
I01
sa(dp580
g9
S'try {\n    String[] noInStringArr = strLine.split(" ");\n} catch (NumberFormatException npe) {\n}'
p581
sg11
I01
sasg12
I3
sg13
I3806123
sg14
I2
sasg25
VHow to open a txt file and read numbers in java
p582
ssI2137755
(dp583
g2
I2137791
sg3
(lp584
(dp585
g6
(lp586
(dp587
g9
VArrayUtils.reverse(int[] array)\u000a
p588
sg11
I00
sasg12
I234
sg13
I2138004
sg14
I0
sa(dp589
g6
(lp590
(dp591
g9
S'for (int i = 0; i < validData.length / 2; i++) {\n    int temp = validData[i];\n    validData[i] = validData[validData.length - i - 1];\n    validData[validData.length - i - 1] = temp;\n}'
p592
sg11
I01
sasg12
I190
sg13
I2137791
sg14
I1
sa(dp593
g6
(lp594
(dp595
g9
S'public class ArrayHandle {\n\n    public static Object[] reverse(Object[] arr) {\n        List<Object> list = Arrays.asList(arr);\n        Collections.reverse(list);\n        return list.toArray();\n    }\n}'
p596
sg11
I01
sasg12
I40
sg13
I2137766
sg14
I2
sasg25
VHow do I reverse an int array in Java?
p597
ssI1647260
(dp598
g2
I1647277
sg3
(lp599
(dp600
g6
(lp601
(dp602
g9
S'int[] oldItems = new int[10];\nfor (int i = 0; i < 10; i++) {\n    oldItems[i] = i + 10;\n}\nint[] newItems = new int[20];\nSystem.arraycopy(oldItems, 0, newItems, 0, 10);\noldItems = newItems;'
p603
sg11
I01
sa(dp604
g9
S'List<xClass> mysclass = new ArrayList<xClass>();\nmyclass.add(new xClass());\nmyclass.add(new xClass());'
p605
sg11
I01
sa(dp606
g9
S'class Myclass {\n\n    private int[] items;\n\n    public int[] getItems() {\n        return items;\n    }\n}'
p607
sg11
I01
sa(dp608
g9
S'class Myclass {\n\n    private List<Integer> items;\n\n    public List<Integer> getItems() {\n        return Collections.unmodifiableList(items);\n    }\n}'
p609
sg11
I01
sasg12
I120
sg13
I1647277
sg14
I0
sa(dp610
g6
(lp611
(dp612
g9
S'import java.util.List;\nimport java.util.ArrayList;\nimport java.util.Random;\n\npublic class A {\n\n    public static void main(String[] args) {\n        List<xClass> list = new ArrayList<xClass>();\n        int elements = new Random().nextInt(100);\n        for (int i = 0; i < elements; i++) {\n            list.add(new xClass());\n        }\n        xClass[] array = list.toArray(new xClass[list.size()]);\n        System.out.println("size of array = " + array.length);\n    }\n}\n\nclass xClass {\n}'
p613
sg11
I01
sasg12
I20
sg13
I1647433
sg14
I1
sa(dp614
g6
(lp615
(dp616
g9
VArrayList<T> tmp = new ArrayList<T>();\u000awhile (...) {\u000a    tmp.add(new T(...));\u000a}\u000a// This creates a new array and copies the element of 'tmp' to it.\u000aT[] array = tmp.toArray(new T[tmp.size()]);\u000a
p617
sg11
I00
sasg12
I7
sg13
I1647374
sg14
I2
sasg25
VJava dynamic array sizes?
p618
ssI1962181
(dp619
g2
I1962195
sg3
(lp620
(dp621
g6
(lp622
(dp623
g9
S's = s.substring(0, s.length() - 1);'
p624
sg11
I01
sasg12
I181
sg13
I1962189
sg14
I0
sa(dp625
g6
(lp626
(dp627
g9
S'String str = "whatever";\nstr = str.replaceAll("[,.]", "");'
p628
sg11
I01
sa(dp629
g9
V[,.]\u000a
p630
sg11
I00
sasg12
I17
sg13
I1962195
sg14
I1
sa(dp631
g6
(lp632
(dp633
g9
S's = s.substring(0, s.length() - 1);'
p634
sg11
I01
sa(dp635
g9
S's = s.replace(",", "");'
p636
sg11
I01
sa(dp637
g9
S's = s.replace(".", "");'
p638
sg11
I01
sasg12
I7
sg13
I1962209
sg14
I2
sasg25
VHow do I delete specific characters from a particular String in Java?
p639
ssI3914404
(dp640
g2
I3914498
sg3
(lp641
(dp642
g6
(lp643
(dp644
g9
S'TimeZone tz = TimeZone.getTimeZone("UTC");\nDateFormat df = new SimpleDateFormat("yyyy-MM-dd\'T\'HH:mm\'Z\'");\ndf.setTimeZone(tz);\nString nowAsISO = df.format(new Date());'
p645
sg11
I01
sasg12
I185
sg13
I3914973
sg14
I0
sa(dp646
g6
(lp647
(dp648
g9
S'TimeZone tz = TimeZone.getTimeZone("UTC");\nDateFormat df = new SimpleDateFormat("yyyy-MM-dd\'T\'HH:mm\'Z\'");\ndf.setTimeZone(tz);\nString nowAsISO = df.format(new Date());'
p649
sg11
I01
sasg12
I165
sg13
I3914498
sg14
I1
sa(dp650
g6
(lp651
(dp652
g9
S'thisMoment = DateTimeFormatter.ofPattern("yyyy-MM-dd\'T\'HH:mmX").withZone(ZoneOffset.UTC).format(Instant.now());'
p653
sg11
I01
sa(dp654
g9
S'thisMoment = String.format("%tFT%<tRZ", Calendar.getInstance(TimeZone.getTimeZone("Z")));'
p655
sg11
I01
sasg12
I84
sg13
I3914546
sg14
I2
sasg25
VHow to get current moment in ISO 8601 format with date, hour, and minute?
p656
ssI16425127
(dp657
g2
I16425169
sg3
(lp658
(dp659
g6
(lp660
(dp661
g9
S'class RecipeCompare implements Comparator<Recipe> {\n\n    @Override\n    public int compare(Recipe o1, Recipe o2) {\n        return o1.getID().compareTo(o2.getID());\n    }\n}'
p662
sg11
I01
sa(dp663
g9
S'Collections.sort(recipes, new RecipeCompare());'
p664
sg11
I01
sasg12
I38
sg13
I16425169
sg14
I0
sa(dp665
g6
(lp666
sg12
I8
sg13
I30578035
sg14
I1
sa(dp667
g6
(lp668
(dp669
g9
Vpublic class RecipeComparator implements Comparator<Recipe> {\u000a\u000apublic static final int COMPARE_BY_ID = 0;\u000apublic static final int COMPARE_BY_NAME = 1;\u000a\u000aprivate int compare_mode = COMPARE_BY_NAME;\u000a\u000apublic RecipeComparator() {\u000a}\u000a\u000apublic RecipeComparator(int compare_mode) {\u000a    this.compare_mode = compare_mode;\u000a}\u000a\u000a@Override\u000apublic int compare(Recipe o1, Recipe o2) {\u000a    switch (compare_mode) {\u000a    case COMPARE_BY_ID:\u000a        return o1.getId().compareTo(o2.getId());\u000a    default:\u000a        return o1.getInputRecipeName().compareTo(o2.getInputRecipeName());\u000a    }\u000a}\u000a
p670
sg11
I00
sa(dp671
g9
S'public static void main(String[] args) {\n    String string1 = "1";\n    String string2 = "2";\n    String string11 = "11";\n    System.out.println(string1.compareTo(string2));\n    System.out.println(string2.compareTo(string11));\n    int number2 = Integer.valueOf(string1);\n    int number11 = Integer.valueOf(string11);\n    int compareTo = number2 > number11 ? 1 : (number2 < number11 ? -1 : 0);\n    System.out.println(compareTo);\n}'
p672
sg11
I01
sasg12
I5
sg13
I16425580
sg14
I2
sasg25
VHow to use Collections.sort() in JAVA ? (Specific situation)
p673
ssI7693994
(dp674
g2
I7693999
sg3
(lp675
(dp676
g6
(lp677
sg12
I162
sg13
I7693999
sg14
I0
sa(dp678
g6
(lp679
sg12
I38
sg13
I7694048
sg14
I1
sa(dp680
g6
(lp681
sg12
I20
sg13
I7694012
sg14
I2
sasg25
VHow to convert ASCII code (0-255) to a String of the associated character?
p682
ssI1942644
(dp683
g2
I1942680
sg3
(lp684
(dp685
g6
(lp686
(dp687
g9
S'package test;\n\nimport java.lang.reflect.Field;\nimport java.lang.reflect.ParameterizedType;\nimport java.util.ArrayList;\nimport java.util.List;\n\npublic class Test {\n\n    List<String> stringList = new ArrayList<String>();\n\n    List<Integer> integerList = new ArrayList<Integer>();\n\n    public static void main(String... args) throws Exception {\n        Field stringListField = Test.class.getDeclaredField("stringList");\n        ParameterizedType stringListType = (ParameterizedType) stringListField.getGenericType();\n        Class<?> stringListClass = (Class<?>) stringListType.getActualTypeArguments()[0];\n        System.out.println(stringListClass);\n        Field integerListField = Test.class.getDeclaredField("integerList");\n        ParameterizedType integerListType = (ParameterizedType) integerListField.getGenericType();\n        Class<?> integerListClass = (Class<?>) integerListType.getActualTypeArguments()[0];\n        System.out.println(integerListClass);\n    }\n}'
p688
sg11
I01
sasg12
I287
sg13
I1942680
sg14
I0
sa(dp689
g6
(lp690
(dp691
g9
Vclass <A extends MyClass> AClass {....}\u000a
p692
sg11
I00
sasg12
I14
sg13
I1942648
sg14
I1
sa(dp693
g6
(lp694
(dp695
g9
S'Type[] types = method.getGenericParameterTypes();\nParameterizedType pType = (ParameterizedType) types[0];\nClass<?> clazz = (Class<?>) pType.getActualTypeArguments()[0];\nSystem.out.println(clazz);'
p696
sg11
I01
sasg12
I12
sg13
I5133664
sg14
I2
sasg25
VGet generic type of java.util.List
p697
ssI5927109
(dp698
g2
I5927408
sg3
(lp699
(dp700
g6
(lp701
(dp702
g9
S'public static class MyObject implements Comparable<MyObject> {\n\n    private Date dateTime;\n\n    public Date getDateTime() {\n        return dateTime;\n    }\n\n    public void setDateTime(Date datetime) {\n        this.dateTime = datetime;\n    }\n\n    @Override\n    public int compareTo(MyObject o) {\n        return getDateTime().compareTo(o.getDateTime());\n    }\n}'
p703
sg11
I01
sa(dp704
g9
S'Collections.sort(myList);'
p705
sg11
I01
sa(dp706
g9
S'Collections.sort(myList, new Comparator<MyObject>() {\n\n    public int compare(MyObject o1, MyObject o2) {\n        return o1.getDateTime().compareTo(o2.getDateTime());\n    }\n});'
p707
sg11
I01
sa(dp708
g9
S'public static class MyObject implements Comparable<MyObject> {\n\n    private Date dateTime;\n\n    public Date getDateTime() {\n        return dateTime;\n    }\n\n    public void setDateTime(Date datetime) {\n        this.dateTime = datetime;\n    }\n\n    @Override\n    public int compareTo(MyObject o) {\n        if (getDateTime() == null || o.getDateTime() == null)\n            return 0;\n        return getDateTime().compareTo(o.getDateTime());\n    }\n}'
p709
sg11
I01
sa(dp710
g9
S'Collections.sort(myList, new Comparator<MyObject>() {\n\n    public int compare(MyObject o1, MyObject o2) {\n        if (o1.getDateTime() == null || o2.getDateTime() == null)\n            return 0;\n        return o1.getDateTime().compareTo(o2.getDateTime());\n    }\n});'
p711
sg11
I01
sasg12
I255
sg13
I5927408
sg14
I0
sa(dp712
g6
(lp713
(dp714
g9
VCollections.sort(myList, new Comparator<MyObject> {\u000a   public int compare(MyObject o1, MyObject o2) {\u000a      DateTime a = o1.getDateTime();\u000a      DateTime b = o2.getDateTime();\u000a      if (a.lt(b)) \u000a        return -1;\u000a      else if (a.lteq(b)) // it's equals\u000a         return 0;\u000a      else\u000a         return 1;\u000a   }\u000a});\u000a
p715
sg11
I00
sasg12
I14
sg13
I5927131
sg14
I1
sa(dp716
g6
(lp717
(dp718
g9
S'Collections.sort(myList, new Comparator<MyObject>() {\n\n    public int compare(MyObject o1, MyObject o2) {\n        return o1.getDateTime().lt(o2.getDateTime()) ? -1 : 1;\n    }\n});'
p719
sg11
I01
sasg12
I8
sg13
I5927260
sg14
I2
sasg25
VSort objects in ArrayList by date?
p720
ssI4377842
(dp721
g2
I4377856
sg3
(lp722
(dp723
g6
(lp724
(dp725
g9
S'float z = (float) x / y;'
p726
sg11
I01
sa(dp727
g9
S'float z = x / (float) y;'
p728
sg11
I01
sa(dp729
g9
S'float z = (float) x / (float) y;'
p730
sg11
I01
sasg12
I94
sg13
I4377856
sg14
I0
sa(dp731
g6
(lp732
(dp733
g9
S'int x = 1111111111;\nint y = 10000;\nfloat f = (float) x / y;\ndouble d = (double) x / y;\nSystem.out.println("f= " + f);\nSystem.out.println("d= " + d);'
p734
sg11
I01
sa(dp735
g9
Vf= 111111.12\u000ad= 111111.1111\u000a
p736
sg11
I00
sasg12
I5
sg13
I4378579
sg14
I1
sa(dp737
g6
(lp738
(dp739
g9
S'float z = x * 1.0 / y;'
p740
sg11
I01
sasg12
I4
sg13
I10359504
sg14
I2
sasg25
VHow can I convert integer into float in Java?
p741
ssI2564298
(dp742
g2
I2564303
sg3
(lp743
(dp744
g6
(lp745
(dp746
g9
S'String[] errorSoon;\nString[] errorSoon = new String[100];'
p747
sg11
I01
sa(dp748
g9
S'String[] errorSoon = { "Hello", "World" };'
p749
sg11
I01
sa(dp750
g9
S'String[] errorSoon = new String[2];\nerrorSoon[0] = "Hello";\nerrorSoon[1] = "World";'
p751
sg11
I01
sasg12
I194
sg13
I2564303
sg14
I0
sa(dp752
g6
(lp753
(dp754
g9
S'String[] args = new String[] { "firstarg", "secondarg", "thirdarg" };'
p755
sg11
I01
sasg12
I84
sg13
I20992528
sg14
I1
sa(dp756
g6
(lp757
(dp758
g9
S'String[] errorSoon = { "foo", "bar" };'
p759
sg11
I01
sa(dp760
g9
S'String[] errorSoon = new String[2];\nerrorSoon[0] = "foo";\nerrorSoon[1] = "bar";'
p761
sg11
I01
sasg12
I19
sg13
I2564314
sg14
I2
sasg25
VJava: how to initialize String[]?
p762
ssI4240080
(dp763
g2
I4240323
sg3
(lp764
(dp765
g6
(lp766
(dp767
g9
S'public static void permutation(String str) {\n    permutation("", str);\n}\nprivate static void permutation(String prefix, String str) {\n    int n = str.length();\n    if (n == 0)\n        System.out.println(prefix);\n    else {\n        for (int i = 0; i < n; i++) permutation(prefix + str.charAt(i), str.substring(0, i) + str.substring(i + 1, n));\n    }\n}'
p768
sg11
I01
sasg12
I454
sg13
I4240323
sg14
I0
sa(dp769
g6
(lp770
sg12
I167
sg13
I4240098
sg14
I1
sa(dp771
g6
(lp772
(dp773
g9
S'public static ArrayList<String> permutation(String s) {\n    ArrayList<String> res = new ArrayList<String>();\n    if (s.length() == 1) {\n        res.add(s);\n    } else if (s.length() > 1) {\n        int lastIndex = s.length() - 1;\n        String last = s.substring(lastIndex);\n        String rest = s.substring(0, lastIndex);\n        res = merge(permutation(rest), last);\n    }\n    return res;\n}\npublic static ArrayList<String> merge(ArrayList<String> list, String c) {\n    ArrayList<String> res = new ArrayList<String>();\n    for (String s : list) {\n        for (int i = 0; i <= s.length(); ++i) {\n            String ps = new StringBuffer(s).insert(i, c).toString();\n            res.add(ps);\n        }\n    }\n    return res;\n}'
p774
sg11
I01
sasg12
I58
sg13
I19624586
sg14
I2
sasg25
VGenerating all permutations of a given string
p775
ssI14145235
(dp776
g2
I14145246
sg3
(lp777
(dp778
g6
(lp779
(dp780
g9
Vif (numbers.isEmpty()) {...}\u000a
p781
sg11
I00
sasg12
I133
sg13
I14145246
sg14
I0
sa(dp782
g6
(lp783
sg12
I15
sg13
I14145269
sg14
I1
sa(dp784
g6
(lp785
(dp786
g9
S'do {\n    number = Integer.parseInt(JOptionPane.showInputDialog("Enter a number (-1 to stop)"));\n    if (number != -1)\n        numbers.add(number);\n} while (number != -1);'
p787
sg11
I01
sasg12
I3
sg13
I14145527
sg14
I2
sasg25
VJava ArrayList - Check if list is empty
p788
ssI11409621
(dp789
g2
I11409778
sg3
(lp790
(dp791
g6
(lp792
(dp793
g9
S'for (int i = 0; i < 5; i++) System.out.println("    *********".substring(i, 5 + 2 * i));'
p794
sg11
I01
sasg12
I16
sg13
I11410241
sg14
I0
sa(dp795
g6
(lp796
(dp797
g9
S'for (int i = 1; i < 10; i += 2) {\n    for (int j = 0; j < i; j++) {\n        System.out.print("*");\n    }\n    System.out.println("");\n}'
p798
sg11
I01
sa(dp799
g9
S'for (int i = 1; i < 10; i += 2) {\n    for (int k = 0; k < (4 - i / 2); k++) {\n        System.out.print(" ");\n    }\n    for (int j = 0; j < i; j++) {\n        System.out.print("*");\n    }\n    System.out.println("");\n}'
p800
sg11
I01
sasg12
I12
sg13
I11409778
sg14
I1
sa(dp801
g6
(lp802
(dp803
g9
S'public void printTriangleLine(int rowNumber) {\n}'
p804
sg11
I01
sa(dp805
g9
S'public void printTriangleLine(int rowNumber) {\n    printSequence(" ", 5 - rowNumber);\n    printSequence("*", 2 * rowNumber + 1);\n    System.out.println();\n}'
p806
sg11
I01
sa(dp807
g9
S'public void printSequence(String s, int repeats) {\n    for (int i = 0; i < repeats; i++) {\n        System.out.print(s);\n    }\n}'
p808
sg11
I01
sa(dp809
g9
S'public static void main(String[] args) {\n    printSequence("a", 3);\n    System.out.println();\n    printTriangleLine(2);\n}'
p810
sg11
I01
sa(dp811
g9
Vaaa\u000a   *****\u000a
p812
sg11
I00
sa(dp813
g9
VassertEquals("   *****", TriangleDrawer.triangleLine(2));\u000aassertEquals("     *", TriangleDrawer.triangleLine(0))\u000a
p814
sg11
I00
sa(dp815
g9
S'public void drawTriangle() {\n    for (int i = 0; i < 5; i++) {\n        printTriangleLine(i);\n    }\n}'
p816
sg11
I01
sasg12
I3
sg13
I12055109
sg14
I2
sasg25
VCreating a triangle with for loops
p817
ssI3395286
(dp818
g2
I3395345
sg3
(lp819
(dp820
g6
(lp821
(dp822
g9
S'String prefix = "";\nfor (String serverId : serverIds) {\n    sb.append(prefix);\n    prefix = ",";\n    sb.append(serverId);\n}'
p823
sg11
I01
sasg12
I430
sg13
I3395345
sg14
I0
sa(dp824
g6
(lp825
(dp826
g9
S'sb.setLength(sb.length() - 1);'
p827
sg11
I01
sa(dp828
g9
S'if (sb.length() > 0) {\n    sb.setLength(sb.length() - 1);\n}'
p829
sg11
I01
sa(dp830
g9
S'sb.setLength(Math.max(sb.length() - 1, 0));'
p831
sg11
I01
sasg12
I251
sg13
I3395329
sg14
I1
sa(dp832
g6
(lp833
(dp834
g9
S'sb.deleteCharAt(sb.length() - 1);'
p835
sg11
I01
sasg12
I101
sg13
I3395299
sg14
I2
sasg25
VRemove last character of a StringBuilder?
p836
ssI2843366
(dp837
g2
I2843371
sg3
(lp838
(dp839
g6
(lp840
(dp841
g9
S'List<String> where = new ArrayList<String>();\nwhere.add(ContactsContract.Contacts.HAS_PHONE_NUMBER + "=1");\nwhere.add(ContactsContract.Contacts.IN_VISIBLE_GROUP + "=1");'
p842
sg11
I01
sa(dp843
g9
S'String[] simpleArray = new String[where.size()];\nwhere.toArray(simpleArray);'
p844
sg11
I01
sa(dp845
g9
V// iterate over the array\u000afor( String oneItem : where ) {\u000a    ...\u000a}\u000a\u000a// get specific items\u000awhere.get( 1 );\u000a
p846
sg11
I00
sasg12
I275
sg13
I2843371
sg14
I0
sa(dp847
g6
(lp848
(dp849
g9
Vimport java.util.*;\u000a//....\u000a\u000aList<String> list = new ArrayList<String>();\u000alist.add("1");\u000alist.add("2");\u000alist.add("3");\u000aSystem.out.println(list); // prints "[1, 2, 3]"\u000a
p850
sg11
I00
sa(dp851
g9
Vstatic <T> T[] append(T[] arr, T element) {\u000a    final int N = arr.length;\u000a    arr = Arrays.copyOf(arr, N + 1);\u000a    arr[N] = element;\u000a    return arr;\u000a}\u000a\u000aString[] arr = { "1", "2", "3" };\u000aSystem.out.println(Arrays.toString(arr)); // prints "[1, 2, 3]"\u000aarr = append(arr, "4");\u000aSystem.out.println(Arrays.toString(arr)); // prints "[1, 2, 3, 4]"\u000a
p852
sg11
I00
sasg12
I80
sg13
I2843373
sg14
I1
sa(dp853
g6
(lp854
(dp855
g9
S'List<String> where = new ArrayList<String>();\nwhere.add(ContactsContract.Contacts.HAS_PHONE_NUMBER + "=1");\nwhere.add(ContactsContract.Contacts.IN_VISIBLE_GROUP + "=1");'
p856
sg11
I01
sa(dp857
g9
S'String[] where = new String[] { ContactsContract.Contacts.HAS_PHONE_NUMBER + "=1", ContactsContract.Contacts.IN_VISIBLE_GROUP + "=1" };'
p858
sg11
I01
sasg12
I10
sg13
I2843435
sg14
I2
sasg25
VHow to add new elements to an array?
p859
ssI17940200
(dp860
g2
I19887135
sg3
(lp861
(dp862
g6
(lp863
(dp864
g9
VDate startDate = // Set start date\u000aDate endDate   = // Set end date\u000a\u000along duration  = endDate.getTime() - startDate.getTime();\u000a\u000along diffInSeconds = TimeUnit.MILLISECONDS.toSeconds(duration);\u000along diffInMinutes = TimeUnit.MILLISECONDS.toMinutes(duration);\u000along diffInHours = TimeUnit.MILLISECONDS.toHours(duration);\u000a
p865
sg11
I00
sasg12
I100
sg13
I17940648
sg14
I0
sa(dp866
g6
(lp867
(dp868
g9
S'{\n    Date dt2 = new DateAndTime().getCurrentDateTime();\n    long diff = dt2.getTime() - dt1.getTime();\n    long diffSeconds = diff / 1000 % 60;\n    long diffMinutes = diff / (60 * 1000) % 60;\n    long diffHours = diff / (60 * 60 * 1000);\n    int diffInDays = (int) ((dt2.getTime() - dt1.getTime()) / (1000 * 60 * 60 * 24));\n    if (diffInDays > 1) {\n        System.err.println("Difference in number of days (2) : " + diffInDays);\n        return false;\n    } else if (diffHours > 24) {\n        System.err.println(">24");\n        return false;\n    } else if ((diffHours == 24) && (diffMinutes >= 1)) {\n        System.err.println("minutes");\n        return false;\n    }\n    return true;\n}'
p869
sg11
I01
sasg12
I42
sg13
I19887135
sg14
I1
sa(dp870
g6
(lp871
(dp872
g9
S'DateTime startTime, endTime;\nPeriod p = new Period(startTime, endTime);\nlong hours = p.getHours();\nlong minutes = p.getMinutes();'
p873
sg11
I01
sa(dp874
g9
S'Interval interval = new Interval(oldTime, new Instant());'
p875
sg11
I01
sa(dp876
g9
S'Instant start, end;\nDuration dur = Duration.between(start, stop);\nlong hours = dur.toHours();\nlong minutes = dur.toMinutes();'
p877
sg11
I01
sasg12
I28
sg13
I17940266
sg14
I2
sasg25
VHow to find the duration of difference between two dates in java?
p878
ssI248562
(dp879
g2
I5351828
sg3
(lp880
(dp881
g6
(lp882
(dp883
g9
S'@RequestMapping(method = RequestMethod.GET)\npublic ModelAndView showResults(final HttpServletRequest request, Principal principal) {\n    final String currentUser = principal.getName();\n}'
p884
sg11
I01
sasg12
I214
sg13
I5351828
sg14
I0
sa(dp885
g6
(lp886
(dp887
g9
S'public interface SecurityContextFacade {\n\n    SecurityContext getContext();\n\n    void setContext(SecurityContext securityContext);\n}'
p888
sg11
I01
sa(dp889
g9
S'public class FooController {\n\n    private final SecurityContextFacade securityContextFacade;\n\n    public FooController(SecurityContextFacade securityContextFacade) {\n        this.securityContextFacade = securityContextFacade;\n    }\n\n    public void doSomething() {\n        SecurityContext context = securityContextFacade.getContext();\n    }\n}'
p890
sg11
I01
sa(dp891
g9
S'public class FooControllerTest {\n\n    private FooController controller;\n\n    private SecurityContextFacade mockSecurityContextFacade;\n\n    private SecurityContext mockSecurityContext;\n\n    @Before\n    public void setUp() throws Exception {\n        mockSecurityContextFacade = mock(SecurityContextFacade.class);\n        mockSecurityContext = mock(SecurityContext.class);\n        stub(mockSecurityContextFacade.getContext()).toReturn(mockSecurityContext);\n        controller = new FooController(mockSecurityContextFacade);\n    }\n\n    @Test\n    public void testDoSomething() {\n        controller.doSomething();\n        verify(mockSecurityContextFacade).getContext();\n    }\n}'
p892
sg11
I01
sa(dp893
g9
S'public class SecurityContextHolderFacade implements SecurityContextFacade {\n\n    public SecurityContext getContext() {\n        return SecurityContextHolder.getContext();\n    }\n\n    public void setContext(SecurityContext securityContext) {\n        SecurityContextHolder.setContext(securityContext);\n    }\n}'
p894
sg11
I01
sa(dp895
g9
V<bean id="myController" class="com.foo.FooController">\u000a     ...\u000a  <constructor-arg index="1">\u000a    <bean class="com.foo.SecurityContextHolderFacade">\u000a  </constructor-arg>\u000a</bean>\u000a
p896
sg11
I00
sasg12
I51
sg13
I885168
sg14
I1
sa(dp897
g6
(lp898
(dp899
g9
V<%@ taglib prefix="security" uri="http://www.springframework.org/security/tags" %>\u000a
p900
sg11
I00
sa(dp901
g9
V<security:authorize access="isAuthenticated()">\u000a    logged in as <security:authentication property="principal.username" /> \u000a</security:authorize>\u000a\u000a<security:authorize access="! isAuthenticated()">\u000a    not logged in\u000a</security:authorize>\u000a
p902
sg11
I00
sasg12
I20
sg13
I9763427
sg14
I2
sasg25
VWhen using Spring Security, what is the proper way to obtain current username (i.e. SecurityContext) information in a bean?
p903
ssI3605237
(dp904
g2
I3605320
sg3
(lp905
(dp906
g6
(lp907
(dp908
g9
S'Map<String, String> reversedMap = new TreeMap<String, String>(codes);\nfor (Map.Entry entry : reversedMap.entrySet()) {\n    System.out.println(entry.getKey() + ", " + entry.getValue());\n}'
p909
sg11
I01
sasg12
I30
sg13
I3605320
sg14
I0
sa(dp910
g6
(lp911
(dp912
g9
S'Map<String, String> map = getMyMap();\nList<String> keys = new ArrayList<String>(map.keySet());\nCollections.sort(keys, someComparator);\nfor (String key : keys) {\n    System.out.println(key + ": " + map.get(key));\n}'
p913
sg11
I01
sa(dp914
g9
S'public static <K, V extends Comparable<? super V>> Comparator<K> mapValueComparator(final Map<K, V> map) {\n    return new Comparator<K>() {\n\n        public int compare(K key1, K key2) {\n            return map.get(key1).compareTo(map.get(key2));\n        }\n    };\n}\npublic static <K, V> Comparator<K> mapValueComparator(final Map<K, V> map, final Comparator<V> comparator) {\n    return new Comparator<K>() {\n\n        public int compare(K key1, K key2) {\n            return comparator.compare(map.get(key1), map.get(key2));\n        }\n    };\n}'
p915
sg11
I01
sasg12
I11
sg13
I3605363
sg14
I1
sa(dp916
g6
(lp917
(dp918
g9
S'Iterator<Map.Entry<String, String>> i = codes.entrySet().iterator();\nwhile (i.hasNext()) {\n    String key = i.next().getKey();\n    System.out.println(key + ", " + codes.get(key));\n}'
p919
sg11
I01
sasg12
I5
sg13
I13467920
sg14
I2
sasg25
VHow print out the contents of a HashMap<String, String> in ascending order based on its values?
p920
ssI454908
(dp921
g2
I454913
sg3
(lp922
(dp923
g6
(lp924
(dp925
g9
S'String[] lines = string.split("\\\\r?\\\\n");'
p926
sg11
I01
sasg12
I513
sg13
I454913
sg14
I0
sa(dp927
g6
(lp928
(dp929
g9
S'String.split("[\\\\r\\\\n]+");'
p930
sg11
I01
sasg12
I91
sg13
I454919
sg14
I1
sa(dp931
g6
(lp932
sg12
I51
sg13
I31060125
sg14
I2
sasg25
VSplit Java String by New Line
p933
ssI18915075
(dp934
g2
Nsg3
(lp935
(dp936
g6
(lp937
(dp938
g9
Vtry{\u000a    SimpleDateFormat dateFormat = new SimpleDateFormat("yyyy-MM-dd hh:mm:ss.SSS");\u000a    Date parsedDate = dateFormat.parse(yourString);\u000a    Timestamp timestamp = new java.sql.Timestamp(parsedDate.getTime());\u000a}catch(Exception e){//this generic but you can control another types of exception\u000a look the origin of excption \u000a}\u000a
p939
sg11
I00
sasg12
I46
sg13
I18915260
sg14
I0
sa(dp940
g6
(lp941
(dp942
g9
S'import java.sql.Timestamp;\nimport java.text.DateFormat;\nimport java.text.ParseException;\nimport java.text.SimpleDateFormat;\nimport java.util.Date;\n\npublic class Util {\n\n    public static Timestamp convertStringToTimestamp(String str_date) {\n        try {\n            DateFormat formatter;\n            formatter = new SimpleDateFormat("dd/MM/yyyy");\n            Date date = formatter.parse(str_date);\n            java.sql.Timestamp timeStampDate = new Timestamp(date.getTime());\n            return timeStampDate;\n        } catch (ParseException e) {\n            System.out.println("Exception :" + e);\n            return null;\n        }\n    }\n}'
p943
sg11
I01
sasg12
I8
sg13
I30341685
sg14
I1
sa(dp944
g6
(lp945
(dp946
g9
S'Date date = new Date();\nTimestamp timestamp = new Timestamp(date.getTime());\nTimestamp myTimeStamp = timestamp;'
p947
sg11
I01
sasg12
I2
sg13
I18915163
sg14
I2
sasg25
VJava: Convert String to TimeStamp
p948
ssI4266756
(dp949
g2
I4266881
sg3
(lp950
(dp951
g6
(lp952
(dp953
g9
Vint i = 200; // 0000 0000 0000 0000 0000 0000 1100 1000 (200)\u000abyte b = (byte) 200; // 1100 1000 (-56 by Java specification, 200 by convention)\u000a\u000a/*\u000a * Will print a negative int -56 because upcasting byte to int does\u000a * so called "sign extension" which yields those bits:\u000a * 1111 1111 1111 1111 1111 1111 1100 1000 (-56)\u000a *\u000a * But you could still choose to interpret this as +200.\u000a */\u000aSystem.out.println(b); // "-56"\u000a\u000a/*\u000a * Will print a positive int 200 because bitwise AND with 0xFF will\u000a * zero all the 24 most significant bits that:\u000a * a) were added during upcasting to int which took place silently\u000a *    just before evaluating the bitwise AND operator.\u000a *    So the `b & 0xFF` is equivalent with `((int) b) & 0xFF`.\u000a * b) were set to 1s because of "sign extension" during the upcasting\u000a *\u000a * 1111 1111 1111 1111 1111 1111 1100 1000 (the int)\u000a * &\u000a * 0000 0000 0000 0000 0000 0000 1111 1111 (the 0xFF)\u000a * =======================================\u000a * 0000 0000 0000 0000 0000 0000 1100 1000 (200)\u000a */\u000aSystem.out.println(b & 0xFF); // "200"\u000a\u000a/*\u000a * You would typically do this *within* the method that expected an \u000a * unsigned byte and the advantage is you apply `0xFF` only once\u000a * and than you use the `unsignedByte` variable in all your bitwise\u000a * operations.\u000a *\u000a * You could use any integer type longer than `byte` for the `unsignedByte` variable,\u000a * i.e. `short`, `int`, `long` and even `char`, but during bitwise operations\u000a * it would get casted to `int` anyway.\u000a */\u000avoid printUnsignedByte(byte b) {\u000a    int unsignedByte = b & 0xFF;\u000a    System.out.println(unsignedByte); // "200"\u000a}\u000a
p954
sg11
I00
sasg12
I145
sg13
I4266841
sg14
I0
sa(dp955
g6
(lp956
(dp957
g9
S'public static int unsignedToBytes(byte b) {\n    return b & 0xFF;\n}\npublic static void main(String[] args) {\n    System.out.println(unsignedToBytes((byte) -12));\n}'
p958
sg11
I01
sasg12
I67
sg13
I4266881
sg14
I1
sa(dp959
g6
(lp960
(dp961
g9
Vint anUnsignedByte = (int) byte & 0xff;\u000a
p962
sg11
I00
sasg12
I28
sg13
I4266978
sg14
I2
sasg25
VCan we make unsigned byte in Java
p963
ssI88838
(dp964
g2
I88863
sg3
(lp965
(dp966
g6
(lp967
(dp968
g9
S'String s = "some text here";\nbyte[] b = s.getBytes("UTF-8");'
p969
sg11
I01
sa(dp970
g9
S'byte[] b = { (byte) 99, (byte) 97, (byte) 116 };\nString s = new String(b, "US-ASCII");'
p971
sg11
I01
sasg12
I234
sg13
I88863
sg14
I0
sa(dp972
g6
(lp973
(dp974
g9
Vimport java.nio.charset.Charset;\u000a\u000aprivate final Charset UTF8_CHARSET = Charset.forName("UTF-8");\u000a\u000aString decodeUTF8(byte[] bytes) {\u000a    return new String(bytes, UTF8_CHARSET);\u000a}\u000a\u000abyte[] encodeUTF8(String string) {\u000a    return string.getBytes(UTF8_CHARSET);\u000a}\u000a
p975
sg11
I00
sasg12
I71
sg13
I3386646
sg14
I1
sa(dp976
g6
(lp977
sg12
I14
sg13
I91774
sg14
I2
sasg25
VHow to convert Strings to and from UTF8 byte arrays in Java
p978
ssI7438612
(dp979
g2
I7438613
sg3
(lp980
(dp981
g6
(lp982
(dp983
g9
S"public String method(String str) {\n    if (str != null && str.length() > 0 && str.charAt(str.length() - 1) == 'x') {\n        str = str.substring(0, str.length() - 1);\n    }\n    return str;\n}"
p984
sg11
I01
sasg12
I400
sg13
I7438613
sg14
I0
sa(dp985
g6
(lp986
(dp987
g9
S'private static String removeLastChar(String str) {\n    return str.substring(0, str.length() - 1);\n}'
p988
sg11
I01
sa(dp989
g9
S'import java.util.*;\nimport java.lang.*;\n\npublic class Main {\n\n    public static void main(String[] args) throws java.lang.Exception {\n        String s1 = "Remove Last CharacterY";\n        String s2 = "Remove Last Character2";\n        System.out.println("After removing s1==" + removeLastChar(s1) + "==");\n        System.out.println("After removing s2==" + removeLastChar(s2) + "==");\n    }\n\n    private static String removeLastChar(String str) {\n        return str.substring(0, str.length() - 1);\n    }\n}'
p990
sg11
I01
sasg12
I131
sg13
I14001872
sg14
I1
sa(dp991
g6
(lp992
(dp993
g9
S'"aaabcd".replaceFirst(".$", "");'
p994
sg11
I01
sasg12
I43
sg13
I18460535
sg14
I2
sasg25
VHow to remove the last character from a string?
p995
ssI2839321
(dp996
g2
I2839563
sg3
(lp997
(dp998
g6
(lp999
(dp1000
g9
VCREATE DATABASE javabase DEFAULT CHARACTER SET utf8 COLLATE utf8_unicode_ci;\u000a
p1001
sg11
I00
sa(dp1002
g9
VCREATE USER 'java'@'localhost' IDENTIFIED BY 'password';\u000aGRANT ALL ON javabase.* TO 'java'@'localhost' IDENTIFIED BY 'password';\u000a
p1003
sg11
I00
sa(dp1004
g9
S'String url = "jdbc:mysql://localhost:3306/javabase";\nString username = "java";\nString password = "password";\nSystem.out.println("Connecting database...");\ntry (Connection connection = DriverManager.getConnection(url, username, password)) {\n    System.out.println("Database connected!");\n} catch (SQLException e) {\n    throw new IllegalStateException("Cannot connect the database!", e);\n}'
p1005
sg11
I01
sa(dp1006
g9
S'System.out.println("Loading driver...");\ntry {\n    Class.forName("com.mysql.jdbc.Driver");\n    System.out.println("Driver loaded!");\n} catch (ClassNotFoundException e) {\n    throw new IllegalStateException("Cannot find the driver in the classpath!", e);\n}'
p1007
sg11
I01
sasg12
I338
sg13
I2840358
sg14
I0
sa(dp1008
g6
(lp1009
(dp1010
g9
S'Context context = new InitialContext();\nDataSource dataSource = (DataSource) context.lookup("java:comp/env/jdbc/myDB");'
p1011
sg11
I01
sa(dp1012
g9
S'MysqlDataSource dataSource = new MysqlDataSource();\ndataSource.setUser("scott");\ndataSource.setPassword("tiger");\ndataSource.setServerName("myDBHost.example.org");'
p1013
sg11
I01
sa(dp1014
g9
VConnection conn = dataSource.getConnection();\u000aStatement stmt = conn.createStatement();\u000aResultSet rs = stmt.executeQuery("SELECT ID FROM USERS");\u000a...\u000ars.close();\u000astmt.close();\u000aconn.close();\u000a
p1015
sg11
I00
sasg12
I134
sg13
I2839563
sg14
I1
sa(dp1016
g6
(lp1017
(dp1018
g9
S'private static final String DATABASE_DRIVER = "com.mysql.jdbc.Driver";\nprivate static final String DATABASE_URL = "jdbc:mysql://localhost:3306/database_name";\nprivate static final String USERNAME = "root";\nprivate static final String PASSWORD = "";\nprivate static final String MAX_POOL = "250";'
p1019
sg11
I01
sa(dp1020
g9
S'private Connection connection;\nprivate Properties properties;'
p1021
sg11
I01
sa(dp1022
g9
S'private Properties getProperties() {\n    if (properties == null) {\n        properties = new Properties();\n        properties.setProperty("user", USERNAME);\n        properties.setProperty("password", PASSWORD);\n        properties.setProperty("MaxPooledStatements", MAX_POOL);\n    }\n    return properties;\n}'
p1023
sg11
I01
sa(dp1024
g9
S'public Connection connect() {\n    if (connection == null) {\n        try {\n            Class.forName(DATABASE_DRIVER);\n            connection = DriverManager.getConnection(DATABASE_URL, getProperties());\n        } catch (ClassNotFoundException | SQLException e) {\n            e.printStackTrace();\n        }\n    }\n    return connection;\n}'
p1025
sg11
I01
sa(dp1026
g9
S'public void disconnect() {\n    if (connection != null) {\n        try {\n            connection.close();\n            connection = null;\n        } catch (SQLException e) {\n            e.printStackTrace();\n        }\n    }\n}'
p1027
sg11
I01
sa(dp1028
g9
S'import java.sql.Connection;\nimport java.sql.DriverManager;\nimport java.sql.SQLException;\nimport java.util.Properties;\n\npublic class MysqlConnect {\n\n    private static final String DATABASE_DRIVER = "com.mysql.jdbc.Driver";\n\n    private static final String DATABASE_URL = "jdbc:mysql://localhost:3306/database_name";\n\n    private static final String USERNAME = "root";\n\n    private static final String PASSWORD = "";\n\n    private static final String MAX_POOL = "250";\n\n    private Connection connection;\n\n    private Properties properties;\n\n    private Properties getProperties() {\n        if (properties == null) {\n            properties = new Properties();\n            properties.setProperty("user", USERNAME);\n            properties.setProperty("password", PASSWORD);\n            properties.setProperty("MaxPooledStatements", MAX_POOL);\n        }\n        return properties;\n    }\n\n    public Connection connect() {\n        if (connection == null) {\n            try {\n                Class.forName(DATABASE_DRIVER);\n                connection = DriverManager.getConnection(DATABASE_URL, getProperties());\n            } catch (ClassNotFoundException | SQLException e) {\n                e.printStackTrace();\n            }\n        }\n        return connection;\n    }\n\n    public void disconnect() {\n        if (connection != null) {\n            try {\n                connection.close();\n                connection = null;\n            } catch (SQLException e) {\n                e.printStackTrace();\n            }\n        }\n    }\n}'
p1029
sg11
I01
sa(dp1030
g9
S'MysqlConnect mysqlConnect = new MysqlConnect();'
p1031
sg11
I01
sa(dp1032
g9
VString sql = "SELECT * FROM `stackoverflow`";\u000atry {\u000a    PreparedStatement statement = mysqlConnect.connect().prepareStatement(sql);\u000a    ... go on ...\u000a    ... go on ...\u000a    ... DONE ....\u000a} catch (SQLException e) {\u000a    e.printStackTrace();\u000a} finally {\u000a    mysqlConnect.disconnect();\u000a}\u000a
p1033
sg11
I00
sasg12
I18
sg13
I30826155
sg14
I2
sasg25
VConnect Java to a MySQL database
p1034
ssI8444710
(dp1035
g2
I8444732
sg3
(lp1036
(dp1037
g6
(lp1038
(dp1039
g9
S'boolean isPalindrome(String s) {\n    int n = s.length();\n    for (int i = 0; i < (n / 2); ++i) {\n        if (s.charAt(i) != s.charAt(n - i - 1)) {\n            return false;\n        }\n    }\n    return true;\n}'
p1040
sg11
I01
sasg12
I85
sg13
I8444800
sg14
I0
sa(dp1041
g6
(lp1042
(dp1043
g9
S'if (s.equals(new StringBuilder(s).reverse().toString()))\n    ;'
p1044
sg11
I01
sasg12
I22
sg13
I8444890
sg14
I1
sa(dp1045
g6
(lp1046
(dp1047
g9
S'public class Palindrome {\n\n    public static boolean isPalindrome(String stringToTest) {\n        String workingCopy = removeJunk(stringToTest);\n        String reversedCopy = reverse(workingCopy);\n        return reversedCopy.equalsIgnoreCase(workingCopy);\n    }\n\n    protected static String removeJunk(String string) {\n        int i, len = string.length();\n        StringBuffer dest = new StringBuffer(len);\n        char c;\n        for (i = (len - 1); i >= 0; i--) {\n            c = string.charAt(i);\n            if (Character.isLetterOrDigit(c)) {\n                dest.append(c);\n            }\n        }\n        return dest.toString();\n    }\n\n    protected static String reverse(String string) {\n        StringBuffer sb = new StringBuffer(string);\n        return sb.reverse().toString();\n    }\n\n    public static void main(String[] args) {\n        String string = "Madam, I\'m Adam.";\n        System.out.println();\n        System.out.println("Testing whether the following " + "string is a palindrome:");\n        System.out.println("    " + string);\n        System.out.println();\n        if (isPalindrome(string)) {\n            System.out.println("It IS a palindrome!");\n        } else {\n            System.out.println("It is NOT a palindrome!");\n        }\n        System.out.println();\n    }\n}'
p1048
sg11
I01
sasg12
I7
sg13
I8444758
sg14
I2
sasg25
VEasiest way to check if a string is palindrome
p1049
ssI513832
(dp1050
g2
I513839
sg3
(lp1051
(dp1052
g6
(lp1053
(dp1054
g9
V// These two have the same value\u000anew String("test").equals("test") // --> true \u000a\u000a// ... but they are not the same object\u000anew String("test") == "test" // --> false \u000a\u000a// ... neither are these\u000anew String("test") == new String("test") // --> false \u000a\u000a// ... but these are because literals are interned by \u000a// the compiler and thus refer to the same object\u000a"test" == "test" // --> true \u000a\u000a// ... but you should really just call Objects.equals()\u000aObjects.equals("test", new String("test")) // --> true\u000aObjects.equals(null, "test") // --> false\u000a
p1055
sg11
I00
sasg12
I4216
sg13
I513839
sg14
I0
sa(dp1056
g6
(lp1057
(dp1058
g9
VString fooString1 = new String("foo");\u000aString fooString2 = new String("foo");\u000a\u000a// Evaluates to false\u000afooString1 == fooString2;\u000a\u000a// Evaluates to true\u000afooString1.equals(fooString2);\u000a\u000a// Evaluates to true, because Java uses the same object\u000a"bar" == "bar";\u000a
p1059
sg11
I00
sa(dp1060
g9
VString nullString1 = null;\u000aString nullString2 = null;\u000a\u000a// Evaluates to true\u000anullString1 == nullString2;\u000a\u000a// Throws an Exception\u000anullString1.equals(nullString2);\u000a
p1061
sg11
I00
sasg12
I507
sg13
I513935
sg14
I1
sa(dp1062
g6
(lp1063
(dp1064
g9
VString a="Test";\u000aString b="Test";\u000aif(a==b) ===> true\u000a
p1065
sg11
I00
sa(dp1066
g9
V                       String Pool\u000a     b -----------------> "test" <-----------------a\u000a
p1067
sg11
I00
sa(dp1068
g9
VString a="test";\u000aString b=new String("test");\u000aif (a==b) ===> false\u000a
p1069
sg11
I00
sa(dp1070
g9
V                String Pool\u000a     "test" <-------------------- a\u000a\u000a                   Heap\u000a     "test" <-------------------- b\u000a
p1071
sg11
I00
sa(dp1072
g9
VString a="Test";\u000aString b="Test";\u000aif(a.equals(b)) ===> true\u000a\u000aString a="test";\u000aString b=new String("test");\u000aif(a.equals(b)) ===> true\u000a
p1073
sg11
I00
sasg12
I315
sg13
I14123474
sg14
I2
sasg25
VHow do I compare strings in Java?
p1074
ssI332079
(dp1075
g2
I332101
sg3
(lp1076
(dp1077
g6
(lp1078
(dp1079
g9
S'String hexString = new String(Hex.encodeHex(messageDigest));'
p1080
sg11
I01
sasg12
I116
sg13
I332433
sg14
I0
sa(dp1081
g6
(lp1082
(dp1083
g9
S'public static String toHex(byte[] bytes) {\n    BigInteger bi = new BigInteger(1, bytes);\n    return String.format("%0" + (bytes.length << 1) + "X", bi);\n}'
p1084
sg11
I01
sasg12
I95
sg13
I943963
sg14
I1
sa(dp1085
g6
(lp1086
(dp1087
g9
S"public static String toHexString(byte[] bytes) {\n    StringBuilder hexString = new StringBuilder();\n    for (int i = 0; i < bytes.length; i++) {\n        String hex = Integer.toHexString(0xFF & bytes[i]);\n        if (hex.length() == 1) {\n            hexString.append('0');\n        }\n        hexString.append(hex);\n    }\n    return hexString.toString();\n}"
p1088
sg11
I01
sasg12
I78
sg13
I332101
sg14
I2
sasg25
VIn Java, how do I convert a byte array to a string of hex digits while keeping leading zeros?
p1089
ssI5993779
(dp1090
g2
I5993823
sg3
(lp1091
(dp1092
g6
(lp1093
(dp1094
g9
S'String[] tokens = pdfName.split("-|\\\\.");'
p1095
sg11
I01
sasg12
I198
sg13
I5993823
sg14
I0
sa(dp1096
g6
(lp1097
sg12
I37
sg13
I5993837
sg14
I1
sa(dp1098
g6
(lp1099
(dp1100
g9
S'String[] tokens = pdfName.split("\\\\W");'
p1101
sg11
I01
sasg12
I17
sg13
I13928086
sg14
I2
sasg25
VUse String.split() with multiple delimiters
p1102
ssI2966334
(dp1103
g2
I2966363
sg3
(lp1104
(dp1105
g6
(lp1106
(dp1107
g9
S'frame.add(new JLabel("<html>Text color: <font color=\'red\'>red</font></html>"));'
p1108
sg11
I01
sasg12
I98
sg13
I2966363
sg14
I0
sa(dp1109
g6
(lp1110
(dp1111
g9
S'JLabel title = new JLabel("I love stackoverflow!", JLabel.CENTER);\ntitle.setForeground(Color.white);'
p1112
sg11
I01
sasg12
I37
sg13
I2966354
sg14
I1
sa(dp1113
g6
(lp1114
(dp1115
g9
S'JLabel label = new JLabel("Text Color: Red");\nlabel.setForeground(Color.red);'
p1116
sg11
I01
sasg12
I17
sg13
I2966359
sg14
I2
sasg25
VHow do I set the colour of a label (coloured text) in Java?
p1117
ssI4040001
(dp1118
g2
I4040014
sg3
(lp1119
(dp1120
g6
(lp1121
(dp1122
g9
S'if (max < numbersNeeded) {\n    throw new IllegalArgumentException("Can\'t ask for more numbers than are available");\n}\nRandom rng = new Random();\nSet<Integer> generated = new LinkedHashSet<Integer>();\nwhile (generated.size() < numbersNeeded) {\n    Integer next = rng.nextInt(max) + 1;\n    generated.add(next);\n}'
p1123
sg11
I01
sasg12
I123
sg13
I4040014
sg14
I0
sa(dp1124
g6
(lp1125
(dp1126
g9
S'import java.util.ArrayList;\nimport java.util.Random;\n\npublic class Test {\n\n    public static void main(String[] args) {\n        int size = 20;\n        ArrayList<Integer> list = new ArrayList<Integer>(size);\n        for (int i = 1; i <= size; i++) {\n            list.add(i);\n        }\n        Random rand = new Random();\n        while (list.size() > 0) {\n            int index = rand.nextInt(list.size());\n            System.out.println("Selected: " + list.remove(index));\n        }\n    }\n}'
p1127
sg11
I01
sasg12
I14
sg13
I4040031
sg14
I1
sa(dp1128
g6
(lp1129
(dp1130
g9
S'ArrayList<Integer> numbers = new ArrayList<Integer>();\nRandom randomGenerator = new Random();\nwhile (numbers.size() < 4) {\n    int random = randomGenerator.nextInt(4);\n    if (!numbers.contains(random)) {\n        numbers.add(random);\n    }\n}'
p1131
sg11
I01
sasg12
I9
sg13
I10136855
sg14
I2
sasg25
VCreating random numbers with no duplicates
p1132
ssI109383
(dp1133
g2
Nsg3
(lp1134
(dp1135
g6
(lp1136
(dp1137
g9
S'import java.util.*;\n\npublic class MapUtil {\n\n    public static <K, V extends Comparable<? super V>> Map<K, V> sortByValue(Map<K, V> map) {\n        List<Map.Entry<K, V>> list = new LinkedList<Map.Entry<K, V>>(map.entrySet());\n        Collections.sort(list, new Comparator<Map.Entry<K, V>>() {\n\n            public int compare(Map.Entry<K, V> o1, Map.Entry<K, V> o2) {\n                return (o1.getValue()).compareTo(o2.getValue());\n            }\n        });\n        Map<K, V> result = new LinkedHashMap<K, V>();\n        for (Map.Entry<K, V> entry : list) {\n            result.put(entry.getKey(), entry.getValue());\n        }\n        return result;\n    }\n}'
p1138
sg11
I01
sa(dp1139
g9
S'import java.util.*;\nimport org.junit.*;\n\npublic class MapUtilTest {\n\n    @Test\n    public void testSortByValue() {\n        Random random = new Random(System.currentTimeMillis());\n        Map<String, Integer> testMap = new HashMap<String, Integer>(1000);\n        for (int i = 0; i < 1000; ++i) {\n            testMap.put("SomeString" + random.nextInt(), random.nextInt());\n        }\n        testMap = MapUtil.sortByValue(testMap);\n        Assert.assertEquals(1000, testMap.size());\n        Integer previous = null;\n        for (Map.Entry<String, Integer> entry : testMap.entrySet()) {\n            Assert.assertNotNull(entry.getValue());\n            if (previous != null) {\n                Assert.assertTrue(entry.getValue() >= previous);\n            }\n            previous = entry.getValue();\n        }\n    }\n}'
p1140
sg11
I01
sa(dp1141
g9
S'public static <K, V extends Comparable<? super V>> Map<K, V> sortByValue(Map<K, V> map) {\n    List<Map.Entry<K, V>> list = new LinkedList<>(map.entrySet());\n    Collections.sort(list, new Comparator<Map.Entry<K, V>>() {\n\n        @Override\n        public int compare(Map.Entry<K, V> o1, Map.Entry<K, V> o2) {\n            return (o1.getValue()).compareTo(o2.getValue());\n        }\n    });\n    Map<K, V> result = new LinkedHashMap<>();\n    for (Map.Entry<K, V> entry : list) {\n        result.put(entry.getKey(), entry.getValue());\n    }\n    return result;\n}'
p1142
sg11
I01
sa(dp1143
g9
S'public static <K, V extends Comparable<? super V>> Map<K, V> sortByValue(Map<K, V> map) {\n    return map.entrySet().stream().sorted(Map.Entry.comparingByValue()).collect(Collectors.toMap(Map.Entry::getKey, Map.Entry::getValue, (e1, e2) -> e1, LinkedHashMap::new));\n}'
p1144
sg11
I01
sasg12
I623
sg13
I2581754
sg14
I0
sa(dp1145
g6
(lp1146
(dp1147
g9
S'public class Testing {\n\n    public static void main(String[] args) {\n        HashMap<String, Double> map = new HashMap<String, Double>();\n        ValueComparator bvc = new ValueComparator(map);\n        TreeMap<String, Double> sorted_map = new TreeMap<String, Double>(bvc);\n        map.put("A", 99.5);\n        map.put("B", 67.4);\n        map.put("C", 67.4);\n        map.put("D", 67.3);\n        System.out.println("unsorted map: " + map);\n        sorted_map.putAll(map);\n        System.out.println("results: " + sorted_map);\n    }\n}\n\nclass ValueComparator implements Comparator<String> {\n\n    Map<String, Double> base;\n\n    public ValueComparator(Map<String, Double> base) {\n        this.base = base;\n    }\n\n    public int compare(String a, String b) {\n        if (base.get(a) >= base.get(b)) {\n            return -1;\n        } else {\n            return 1;\n        }\n    }\n}'
p1148
sg11
I01
sa(dp1149
g9
Vunsorted map: {D=67.3, A=99.5, B=67.4, C=67.4}\u000aresults: {D=67.3, B=67.4, C=67.4, A=99.5}\u000a
p1150
sg11
I00
sasg12
I384
sg13
I1283722
sg14
I1
sa(dp1151
g6
(lp1152
(dp1153
g9
S'valueComparator = Ordering.natural().onResultOf(Functions.forMap(map));'
p1154
sg11
I01
sa(dp1155
g9
S'valueComparator = Ordering.from(comparator).onResultOf(Functions.forMap(map));'
p1156
sg11
I01
sa(dp1157
g9
S'valueComparator = Ordering.natural().onResultOf(Functions.forMap(map)).compound(Ordering.natural());'
p1158
sg11
I01
sa(dp1159
g9
S'map = ImmutableSortedMap.copyOf(myOriginalMap, valueComparator);'
p1160
sg11
I01
sa(dp1161
g9
S'import static org.junit.Assert.assertEquals;\nimport java.util.HashMap;\nimport java.util.Map;\nimport java.util.TreeMap;\nimport com.google.common.base.Functions;\nimport com.google.common.collect.Ordering;\n\nclass ValueComparableMap<K extends Comparable<K>, V> extends TreeMap<K, V> {\n\n    private final Map<K, V> valueMap;\n\n    ValueComparableMap(final Ordering<? super V> partialValueOrdering) {\n        this(partialValueOrdering, new HashMap<K, V>());\n    }\n\n    private ValueComparableMap(Ordering<? super V> partialValueOrdering, HashMap<K, V> valueMap) {\n        super(partialValueOrdering.onResultOf(Functions.forMap(valueMap)).compound(Ordering.natural()));\n        this.valueMap = valueMap;\n    }\n\n    public V put(K k, V v) {\n        if (valueMap.containsKey(k)) {\n            remove(k);\n        }\n        valueMap.put(k, v);\n        return super.put(k, v);\n    }\n\n    public static void main(String[] args) {\n        TreeMap<String, Integer> map = new ValueComparableMap<String, Integer>(Ordering.natural());\n        map.put("a", 5);\n        map.put("b", 1);\n        map.put("c", 3);\n        assertEquals("b", map.firstKey());\n        assertEquals("a", map.lastKey());\n        map.put("d", 0);\n        assertEquals("d", map.firstKey());\n        map.put("d", 2);\n        assertEquals("b", map.firstKey());\n        map.put("e", 2);\n        assertEquals(5, map.size());\n        assertEquals(2, (int) map.get("e"));\n        assertEquals(2, (int) map.get("d"));\n    }\n}'
p1162
sg11
I01
sa(dp1163
g9
S'new ValueComparableMap(Ordering.natural());\nnew ValueComparableMap(Ordering.from(comparator));'
p1164
sg11
I01
sasg12
I193
sg13
I3420912
sg14
I2
sasg25
VSort a Map<Key, Value> by values (Java)
p1165
ssI811851
(dp1166
g2
I811860
sg3
(lp1167
(dp1168
g6
(lp1169
(dp1170
g9
S'public class CharacterHandler {\n\n    public static void main(String[] args) throws IOException {\n        Charset encoding = Charset.defaultCharset();\n        for (String filename : args) {\n            File file = new File(filename);\n            handleFile(file, encoding);\n        }\n    }\n\n    private static void handleFile(File file, Charset encoding) throws IOException {\n        try (InputStream in = new FileInputStream(file);\n            Reader reader = new InputStreamReader(in, encoding);\n            Reader buffer = new BufferedReader(reader)) {\n            handleCharacters(buffer);\n        }\n    }\n\n    private static void handleCharacters(Reader reader) throws IOException {\n        int r;\n        while ((r = reader.read()) != -1) {\n            char ch = (char) r;\n            System.out.println("Do something with " + ch);\n        }\n    }\n}'
p1171
sg11
I01
sasg12
I46
sg13
I811860
sg14
I0
sa(dp1172
g6
(lp1173
(dp1174
g9
S'BufferedReader reader = new BufferedReader(new InputStreamReader(new FileInputStream(file), Charset.forName("UTF-8")));\nint c;\nwhile ((c = reader.read()) != -1) {\n    char character = (char) c;\n}'
p1175
sg11
I01
sasg12
I12
sg13
I812110
sg14
I1
sa(dp1176
g6
(lp1177
(dp1178
g9
S'import java.io.BufferedReader;\nimport java.io.IOException;\nimport java.io.InputStreamReader;\n\npublic class Reader {\n\n    public static void main(String[] args) throws IOException {\n        BufferedReader buffer = new BufferedReader(new InputStreamReader(System.in));\n        int c = 0;\n        while ((c = buffer.read()) != -1) {\n            char character = (char) c;\n            System.out.println(character);\n        }\n    }\n}'
p1179
sg11
I01
sasg12
I5
sg13
I811996
sg14
I2
sasg25
VHow do I read input character-by-character in Java?
p1180
ssI15758685
(dp1181
g2
I15758768
sg3
(lp1182
(dp1183
g6
(lp1184
(dp1185
g9
S'public static void main(String[] args) {\n    Logger logger = Logger.getLogger("MyLog");\n    FileHandler fh;\n    try {\n        fh = new FileHandler("C:/temp/test/MyLogFile.log");\n        logger.addHandler(fh);\n        SimpleFormatter formatter = new SimpleFormatter();\n        fh.setFormatter(formatter);\n        logger.info("My first log");\n    } catch (SecurityException e) {\n        e.printStackTrace();\n    } catch (IOException e) {\n        e.printStackTrace();\n    }\n    logger.info("Hi How r u?");\n}'
p1186
sg11
I01
sa(dp1187
g9
VApr 2, 2013 9:57:08 AM testing.MyLogger main  \u000aINFO: My first log  \u000aApr 2, 2013 9:57:08 AM testing.MyLogger main  \u000aINFO: Hi How r u?\u000a
p1188
sg11
I00
sa(dp1189
g9
S'logger.setUseParentHandlers(false);'
p1190
sg11
I01
sasg12
I148
sg13
I15758768
sg14
I0
sa(dp1191
g6
(lp1192
(dp1193
g9
S'public class LoggingTester {\n\n    private final Logger logger = Logger.getLogger(LoggingTester.class.getName());\n\n    private FileHandler fh = null;\n\n    public LoggingTester() {\n        SimpleDateFormat format = new SimpleDateFormat("M-d_HHmmss");\n        try {\n            fh = new FileHandler("C:/temp/test/MyLogFile_" + format.format(Calendar.getInstance().getTime()) + ".log");\n        } catch (Exception e) {\n            e.printStackTrace();\n        }\n        fh.setFormatter(new SimpleFormatter());\n        logger.addHandler(fh);\n    }\n\n    public void doLogging() {\n        logger.info("info msg");\n        logger.severe("error message");\n        logger.fine("fine message");\n    }\n}'
p1194
sg11
I01
sa(dp1195
g9
S'fh.setFormatter(new Formatter() {\n\n    @Override\n    public String format(LogRecord record) {\n        SimpleDateFormat logTime = new SimpleDateFormat("MM-dd-yyyy HH:mm:ss");\n        Calendar cal = new GregorianCalendar();\n        cal.setTimeInMillis(record.getMillis());\n        return record.getLevel() + logTime.format(cal.getTime()) + " || " + record.getSourceClassName().substring(record.getSourceClassName().lastIndexOf(".") + 1, record.getSourceClassName().length()) + "." + record.getSourceMethodName() + "() : " + record.getMessage() + "\\n";\n    }\n});'
p1196
sg11
I01
sasg12
I10
sg13
I24371368
sg14
I1
sa(dp1197
g6
(lp1198
sg12
I4
sg13
I15758794
sg14
I2
sasg25
VHow to write logs in text file when using java.util.logging.Logger
p1199
ssI1391970
(dp1200
g2
Nsg3
(lp1201
(dp1202
g6
(lp1203
(dp1204
g9
VCharSequence cs = "string";\u000aString s = cs.toString();\u000afoo(s); // prints "string"\u000a\u000apublic void foo(CharSequence cs) { \u000a  System.out.println(cs);\u000a}\u000a
p1205
sg11
I00
sasg12
I214
sg13
I1391976
sg14
I0
sa(dp1206
g6
(lp1207
(dp1208
g9
S'String s = "Hello World!";\nCharSequence cs = s;'
p1209
sg11
I01
sasg12
I28
sg13
I25161321
sg14
I1
sa(dp1210
g6
(lp1211
sg12
I8
sg13
I35050419
sg14
I2
sasg25
VHow to convert a String to CharSequence?
p1212
ssI7522022
(dp1213
g2
Nsg3
(lp1214
(dp1215
g6
(lp1216
(dp1217
g9
S'System.out.print("hello");\nThread.sleep(1000);\nSystem.out.print("\\b\\b\\b\\b\\b");\nSystem.out.print("world");'
p1218
sg11
I01
sasg12
I44
sg13
I7522190
sg14
I0
sa(dp1219
g6
(lp1220
(dp1221
g9
S'Runtime.getRuntime().exec("cls");'
p1222
sg11
I01
sa(dp1223
g9
S'System.setOut(new PrintStream(new OutputStream() {\n\n    @Override\n    public void write(int b) throws IOException {\n    }\n}));'
p1224
sg11
I01
sasg12
I21
sg13
I7522075
sg14
I1
sa(dp1225
g6
(lp1226
(dp1227
g9
S'int count = 1;\nSystem.out.print(String.format("\\033[%dA", count));\nSystem.out.print("\\033[2K");'
p1228
sg11
I01
sa(dp1229
g9
S'System.out.print(String.format("\\033[2J"));'
p1230
sg11
I01
sasg12
I11
sg13
I22083329
sg14
I2
sasg25
VHow to delete stuff printed to console by System.out.println()?
p1231
ssI473446
(dp1232
g2
I473470
sg3
(lp1233
(dp1234
g6
(lp1235
(dp1236
g9
S'System.getProperty("user.name");'
p1237
sg11
I01
sa(dp1238
g9
S'java.net.InetAddress localMachine = java.net.InetAddress.getLocalHost();\nSystem.out.println("Hostname of local machine: " + localMachine.getHostName());'
p1239
sg11
I01
sasg12
I200
sg13
I473470
sg14
I0
sa(dp1240
g6
(lp1241
(dp1242
g9
S'System.getProperty("user.name");'
p1243
sg11
I01
sa(dp1244
g9
S'InetAddress.getLocalHost().getHostName();'
p1245
sg11
I01
sasg12
I75
sg13
I473544
sg14
I1
sa(dp1246
g6
(lp1247
sg12
I10
sg13
I12565525
sg14
I2
sasg25
VJava current machine name and logged in user?
p1248
ssI8721262
(dp1249
g2
I8721276
sg3
(lp1250
(dp1251
g6
(lp1252
sg12
I160
sg13
I8721276
sg14
I0
sa(dp1253
g6
(lp1254
(dp1255
g9
S'long length = f.length();'
p1256
sg11
I01
sasg12
I28
sg13
I8721272
sg14
I1
sa(dp1257
g6
(lp1258
(dp1259
g9
S'long size = f.length();'
p1260
sg11
I01
sasg12
I14
sg13
I8721304
sg14
I2
sasg25
VHow to get file size in Java
p1261
ssI2525042
(dp1262
g2
I2525152
sg3
(lp1263
(dp1264
g6
(lp1265
(dp1266
g9
S'public void testJackson() throws IOException {\n    ObjectMapper mapper = new ObjectMapper();\n    File from = new File("albumnList.txt");\n    TypeReference<HashMap<String, Object>> typeRef = new TypeReference<HashMap<String, Object>>() {\n    };\n    HashMap<String, Object> o = mapper.readValue(from, typeRef);\n    System.out.println("Got " + o);\n}'
p1267
sg11
I01
sa(dp1268
g9
S'new ByteArrayInputStream(astring.getBytes("UTF-8"));'
p1269
sg11
I01
sasg12
I193
sg13
I2525152
sg14
I0
sa(dp1270
g6
(lp1271
(dp1272
g9
S'Map<String, String> result;\nObjectMapper mapper;\nTypeFactory factory;\nMapType type;\nfactory = TypeFactory.defaultInstance();\ntype = factory.constructMapType(HashMap.class, String.class, String.class);\nmapper = new ObjectMapper();\nresult = mapper.readValue(data, type);'
p1273
sg11
I01
sa(dp1274
g9
S'Map<String, String> result = new ObjectMapper().readValue(data, TypeFactory.mapType(HashMap.class, String.class, String.class));'
p1275
sg11
I01
sasg12
I35
sg13
I3076569
sg14
I1
sa(dp1276
g6
(lp1277
(dp1278
g9
VHashMap<String,Object> props;\u000a\u000a// src is a File, InputStream, String or such\u000aprops = new ObjectMapper().readValue(src, new TypeReference<HashMap<String,Object>>() {});\u000a// or:\u000aprops = (HashMap<String,Object>) new ObjectMapper().readValue(src, HashMap.class);\u000a// or even just:\u000a@SuppressWarnings("unchecked") // suppresses typed/untype mismatch warnings, which is harmless\u000aprops = new ObjectMapper().readValue(src, HashMap.class);\u000a
p1279
sg11
I00
sasg12
I16
sg13
I2525729
sg14
I2
sasg25
VHow to convert a JSON string to a Map<String, String> with Jackson JSON
p1280
ssI4404084
(dp1281
g2
I4404149
sg3
(lp1282
(dp1283
g6
(lp1284
(dp1285
g9
S'if (lista.contains(conta1)) {\n    System.out.println("Account found");\n} else {\n    System.out.println("Account not found");\n}'
p1286
sg11
I01
sasg12
I182
sg13
I4404149
sg14
I0
sa(dp1287
g6
(lp1288
sg12
I28
sg13
I4405639
sg14
I1
sa(dp1289
g6
(lp1290
(dp1291
g9
S'@Override\npublic boolean equals(Object object) {\n    boolean result = false;\n    if (object == null || object.getClass() != getClass()) {\n        result = false;\n    } else {\n        EmployeeModel employee = (EmployeeModel) object;\n        if (this.name.equals(employee.getName()) && this.designation.equals(employee.getDesignation()) && this.age == employee.getAge()) {\n            result = true;\n        }\n    }\n    return result;\n}'
p1292
sg11
I01
sa(dp1293
g9
S'public static void main(String[] args) {\n    EmployeeModel first = new EmployeeModel("Sameer", "Developer", 25);\n    EmployeeModel second = new EmployeeModel("Jon", "Manager", 30);\n    EmployeeModel third = new EmployeeModel("Priyanka", "Tester", 24);\n    List<EmployeeModel> employeeList = new ArrayList<EmployeeModel>();\n    employeeList.add(first);\n    employeeList.add(second);\n    employeeList.add(third);\n    EmployeeModel checkUserOne = new EmployeeModel("Sameer", "Developer", 25);\n    System.out.println("Check checkUserOne is in list or not ");\n    System.out.println("Is checkUserOne Preasent = ? " + employeeList.contains(checkUserOne));\n    EmployeeModel checkUserTwo = new EmployeeModel("Tim", "Tester", 24);\n    System.out.println("Check checkUserTwo is in list or not ");\n    System.out.println("Is checkUserTwo Preasent = ? " + employeeList.contains(checkUserTwo));\n}'
p1294
sg11
I01
sasg12
I8
sg13
I22533157
sg14
I2
sasg25
VCheck if a value exists in ArrayList
p1295
ssI1383797
(dp1296
g2
I1383830
sg3
(lp1297
(dp1298
g6
(lp1299
(dp1300
g9
S'public static <T, E> Set<T> getKeysByValue(Map<T, E> map, E value) {\n    Set<T> keys = new HashSet<T>();\n    for (Entry<T, E> entry : map.entrySet()) {\n        if (Objects.equals(value, entry.getValue())) {\n            keys.add(entry.getKey());\n        }\n    }\n    return keys;\n}'
p1301
sg11
I01
sa(dp1302
g9
S'public static <T, E> T getKeyByValue(Map<T, E> map, E value) {\n    for (Entry<T, E> entry : map.entrySet()) {\n        if (Objects.equals(value, entry.getValue())) {\n            return entry.getKey();\n        }\n    }\n    return null;\n}'
p1303
sg11
I01
sa(dp1304
g9
S'public static <T, E> Set<T> getKeysByValue(Map<T, E> map, E value) {\n    return map.entrySet().stream().filter(entry -> Objects.equals(entry.getValue(), value)).map(Map.Entry::getKey).collect(Collectors.toSet());\n}'
p1305
sg11
I01
sa(dp1306
g9
S"BiMap<Token, Character> tokenToChar = ImmutableBiMap.of(Token.LEFT_BRACKET, '[', Token.LEFT_PARENTHESIS, '(');\nToken token = tokenToChar.inverse().get('(');\nCharacter c = tokenToChar.get(token);"
p1307
sg11
I01
sasg12
I511
sg13
I2904266
sg14
I0
sa(dp1308
g6
(lp1309
sg12
I165
sg13
I1383830
sg14
I1
sa(dp1310
g6
(lp1311
(dp1312
g9
S'public class NewClass1 {\n\n    public static void main(String[] args) {\n        Map<Integer, String> testMap = new HashMap<Integer, String>();\n        testMap.put(10, "a");\n        testMap.put(20, "b");\n        testMap.put(30, "c");\n        testMap.put(40, "d");\n        for (Entry<Integer, String> entry : testMap.entrySet()) {\n            if (entry.getValue().equals("c")) {\n                System.out.println(entry.getKey());\n            }\n        }\n    }\n}'
p1313
sg11
I01
sa(dp1314
g9
V1. Key to value\u000a\u000a2. Value to key \u000a
p1315
sg11
I00
sasg12
I56
sg13
I7737428
sg14
I2
sasg25
VJava Hashmap: How to get key from value?
p1316
ssI112503
(dp1317
g2
I112542
sg3
(lp1318
(dp1319
g6
(lp1320
(dp1321
g9
S'List<String> list = new ArrayList<String>(Arrays.asList(array));\nlist.removeAll(Arrays.asList("a"));\narray = list.toArray(array);'
p1322
sg11
I01
sa(dp1323
g9
S'array = list.toArray(new String[0]);'
p1324
sg11
I01
sa(dp1325
g9
S'private static final String[] EMPTY_STRING_ARRAY = new String[0];'
p1326
sg11
I01
sa(dp1327
g9
S'List<String> list = new ArrayList<>();\nCollections.addAll(list, array);\nlist.removeAll(Arrays.asList("a"));\narray = list.toArray(EMPTY_STRING_ARRAY);'
p1328
sg11
I01
sa(dp1329
g9
S'array = list.toArray(new String[list.size()]);'
p1330
sg11
I01
sasg12
I90
sg13
I112542
sg14
I0
sa(dp1331
g6
(lp1332
sg12
I20
sg13
I112507
sg14
I1
sa(dp1333
g6
(lp1334
(dp1335
g9
S'String[] filteredArray = Arrays.stream(array).filter(e -> !e.equals(foo)).toArray(String[]::new);'
p1336
sg11
I01
sasg12
I17
sg13
I23188826
sg14
I2
sasg25
VHow do I remove objects from an array in Java?
p1337
ssI8557716
(dp1338
g2
Nsg3
(lp1339
(dp1340
g6
(lp1341
sg12
I40
sg13
I8557747
sg14
I0
sa(dp1342
g6
(lp1343
(dp1344
g9
S'public class MyResult {\n\n    int returnCode;\n\n    String errorMessage;\n}\npublic MyResult someMethod() {\n}'
p1345
sg11
I01
sasg12
I19
sg13
I8557749
sg14
I1
sa(dp1346
g6
(lp1347
(dp1348
g9
S'public class Example {\n\n    public String name;\n\n    public String location;\n\n    public String[] getExample() {\n        String[] ar = new String[2];\n        ar[0] = name;\n        ar[1] = location;\n        return ar;\n    }\n}'
p1349
sg11
I01
sasg12
I13
sg13
I8557791
sg14
I2
sasg25
VHow to return multiple values?
p1350
ssI867194
(dp1351
g2
I867206
sg3
(lp1352
(dp1353
g6
(lp1354
(dp1355
g9
S'if (!resultSet.isBeforeFirst()) {\n    System.out.println("No data");\n}'
p1356
sg11
I01
sasg12
I398
sg13
I6813771
sg14
I0
sa(dp1357
g6
(lp1358
sg12
I161
sg13
I867206
sg14
I1
sa(dp1359
g6
(lp1360
(dp1361
g9
S'if (!resultSet.next()) {\n    System.out.println("no data");\n} else {\n    do {\n    } while (resultSet.next());\n}'
p1362
sg11
I01
sasg12
I37
sg13
I930757
sg14
I2
sasg25
VJava ResultSet how to check if there are any results
p1363
ssI13386107
(dp1364
g2
I13386289
sg3
(lp1365
(dp1366
g6
(lp1367
(dp1368
g9
S'StringBuilder sb = new StringBuilder(inputString);'
p1369
sg11
I01
sa(dp1370
g9
S'String resultString = sb.toString();'
p1371
sg11
I01
sasg12
I124
sg13
I13386289
sg14
I0
sa(dp1372
g6
(lp1373
(dp1374
g9
S'String result = str.substring(0, index) + str.substring(index + 1);'
p1375
sg11
I01
sasg12
I43
sg13
I13386147
sg14
I1
sa(dp1376
g6
(lp1377
(dp1378
g9
S'String a = "Cool";\na = a.replace("o", "");'
p1379
sg11
I01
sasg12
I23
sg13
I20665193
sg14
I2
sasg25
VHow to remove single character from a String
p1380
ssI4138364
(dp1381
g2
I4138420
sg3
(lp1382
(dp1383
g6
(lp1384
(dp1385
g9
S'Map<String, Item> map = list.stream().collect(Collectors.toMap(Item::getKey, item -> item));'
p1386
sg11
I01
sa(dp1387
g9
S'import java.util.Arrays;\nimport java.util.List;\nimport java.util.Map;\nimport java.util.stream.Collectors;\n\npublic class Test {\n\n    public static void main(String[] args) {\n        List<Item> list = IntStream.rangeClosed(1, 4).mapToObj(Item::new).collect(Collectors.toList());\n        Map<String, Item> map = list.stream().collect(Collectors.toMap(Item::getKey, item -> item));\n        map.forEach((k, v) -> System.out.println(k + " => " + v));\n    }\n}\n\nclass Item {\n\n    private final int i;\n\n    public Item(int i) {\n        this.i = i;\n    }\n\n    public String getKey() {\n        return "Key-" + i;\n    }\n\n    @Override\n    public String toString() {\n        return "Item [i=" + i + "]";\n    }\n}'
p1388
sg11
I01
sa(dp1389
g9
VKey-1 => Item [i=1]\u000aKey-2 => Item [i=2]\u000aKey-3 => Item [i=3]\u000aKey-4 => Item [i=4]\u000a
p1390
sg11
I00
sa(dp1391
g9
S'List<Integer> intList = Arrays.asList(1, 2, 3, 4, 5, 6);\nMap<String, Integer> map = intList.stream().collect(toMap(i -> String.valueOf(i % 3), i -> i));'
p1392
sg11
I01
sa(dp1393
g9
S'Map<String, Integer> map = intList.stream().collect(toMap(i -> String.valueOf(i % 3), i -> i, Integer::sum));'
p1394
sg11
I01
sa(dp1395
g9
V0 => 9 (i.e 3 + 6)\u000a1 => 5 (i.e 1 + 4)\u000a2 => 7 (i.e 2 + 5)\u000a
p1396
sg11
I00
sasg12
I140
sg13
I20887747
sg14
I0
sa(dp1397
g6
(lp1398
(dp1399
g9
S'List<Item> list;\nMap<Key, Item> map = new HashMap<Key, Item>();\nfor (Item i : list) map.put(i.getKey(), i);'
p1400
sg11
I01
sasg12
I111
sg13
I4138420
sg14
I1
sa(dp1401
g6
(lp1402
(dp1403
g9
S'Map<String, Role> mappedRoles = Maps.uniqueIndex(yourList, new Function<Role, String>() {\n\n    public String apply(Role from) {\n        return from.getName();\n    }\n});'
p1404
sg11
I01
sasg12
I104
sg13
I8517873
sg14
I2
sasg25
VJava: How to convert List to Map
p1405
ssI2627992
(dp1406
g2
I2628560
sg3
(lp1407
(dp1408
g6
(lp1409
(dp1410
g9
Vjava -Duser.timezone=GMT ... <main-class>\u000a
p1411
sg11
I00
sa(dp1412
g9
VCalendar tzCal = Calendar.getInstance(TimeZone.getTimeZone("GMT"));\u000aResultSet rs = ...;\u000awhile (rs.next()) {\u000a    Date dateValue = rs.getDate("DateColumn", tzCal);\u000a    // Other fields and calculations\u000a}\u000a
p1413
sg11
I00
sa(dp1414
g9
S'Calendar tzCal = Calendar.getInstance(TimeZone.getTimeZone("GMT"));\nPreparedStatement ps = conn.createPreparedStatement("update ...");\nps.setDate("DateColumn", dateValue, tzCal);\nps.executeUpdate();'
p1415
sg11
I01
sa(dp1416
g9
S'TimeZone tz = TimeZone.getTimeZone("<local-time-zone>");\nDate dateValue = rs.getDate("DateColumn");\nCalendar calValue = Calendar.getInstance(tz);\ncalValue.setTime(dateValue);'
p1417
sg11
I01
sasg12
I82
sg13
I2628560
sg14
I0
sa(dp1418
g6
(lp1419
sg12
I9
sg13
I5053005
sg14
I1
sa(dp1420
g6
(lp1421
(dp1422
g9
S'System.setProperty("user.timezone", "EST");'
p1423
sg11
I01
sasg12
I9
sg13
I14858183
sg14
I2
sasg25
VForce Java timezone as GMT/UTC
p1424
ssI1448858
(dp1425
g2
I1448866
sg3
(lp1426
(dp1427
g6
(lp1428
sg12
I44
sg13
I24415186
sg14
I0
sa(dp1429
g6
(lp1430
(dp1431
g9
S'System.out.println((char) 27 + "[31mThis text would show up red" + (char) 27 + "[0m");'
p1432
sg11
I01
sasg12
I30
sg13
I25511009
sg14
I1
sa(dp1433
g6
(lp1434
sg12
I25
sg13
I1448866
sg14
I2
sasg25
VHow to color System.out.println output?
p1435
ssI1892765
(dp1436
g2
I1892778
sg3
(lp1437
(dp1438
g6
(lp1439
sg12
I576
sg13
I1892778
sg14
I0
sa(dp1440
g6
(lp1441
(dp1442
g9
S'private String capitalize(final String line) {\n    return Character.toUpperCase(line.charAt(0)) + line.substring(1);\n}'
p1443
sg11
I01
sasg12
I200
sg13
I11149580
sg14
I1
sa(dp1444
g6
(lp1445
(dp1446
g9
S"public static String capitalizeString(String string) {\n    char[] chars = string.toLowerCase().toCharArray();\n    boolean found = false;\n    for (int i = 0; i < chars.length; i++) {\n        if (!found && Character.isLetter(chars[i])) {\n            chars[i] = Character.toUpperCase(chars[i]);\n            found = true;\n        } else if (Character.isWhitespace(chars[i]) || chars[i] == '.' || chars[i] == '\\'') {\n            found = false;\n        }\n    }\n    return String.valueOf(chars);\n}"
p1447
sg11
I01
sasg12
I55
sg13
I1892812
sg14
I2
sasg25
VHow to capitalize the first character of each word in a string
p1448
ssI922528
(dp1449
g2
Nsg3
(lp1450
(dp1451
g6
(lp1452
(dp1453
g9
S'SortedSet<String> keys = new TreeSet<String>(map.keySet());\nfor (String key : keys) {\n    String value = map.get(key);\n}'
p1454
sg11
I01
sa(dp1455
g9
V// placed inline for the demonstration, but doesn't have to be an anonymous class\u000aComparator<Foo> comparator = new Comparator<Foo>() {\u000a  public int compare(Foo o1, Foo o2) {\u000a    ...\u000a  }\u000a}\u000aSortedSet<Foo> keys = new TreeSet<Foo>(comparator);\u000akeys.addAll(map.keySet());\u000a
p1456
sg11
I00
sasg12
I456
sg13
I922533
sg14
I0
sa(dp1457
g6
(lp1458
(dp1459
g9
S'List sortedKeys = new ArrayList(yourMap.keySet());\nCollections.sort(sortedKeys);'
p1460
sg11
I01
sasg12
I99
sg13
I922624
sg14
I1
sa(dp1461
g6
(lp1462
(dp1463
g9
S'Map<String, String> map = new HashMap<String, String>();\nMap<String, String> treeMap = new TreeMap<String, String>(map);\nfor (String str : treeMap.keySet()) {\n    System.out.println(str);\n}'
p1464
sg11
I01
sasg12
I35
sg13
I8036079
sg14
I2
sasg25
Vhow to sort Map values by key in Java
p1465
ssI240546
(dp1466
g2
I3149645
sg3
(lp1467
(dp1468
g6
(lp1469
(dp1470
g9
S'public static String html2text(String html) {\n    return Jsoup.parse(html).text();\n}'
p1471
sg11
I01
sasg12
I414
sg13
I3149645
sg14
I0
sa(dp1472
g6
(lp1473
(dp1474
g9
S'android.text.Html.fromHtml(instruction).toString();'
p1475
sg11
I01
sasg12
I234
sg13
I6385950
sg14
I1
sa(dp1476
g6
(lp1477
(dp1478
g9
S'replaceAll("\\\\<[^>]*>", "");'
p1479
sg11
I01
sasg12
I63
sg13
I240630
sg14
I2
sasg25
VRemove HTML tags from a String
p1480
ssI75175
(dp1481
g2
Nsg3
(lp1482
(dp1483
g6
(lp1484
(dp1485
g9
S'private static class SomeContainer<E> {\n\n    E createContents(Class<E> clazz) {\n        return clazz.newInstance();\n    }\n}'
p1486
sg11
I01
sasg12
I240
sg13
I75254
sg14
I0
sa(dp1487
g6
(lp1488
(dp1489
g9
Vpublic abstract class Foo<E> {\u000a\u000a  public E instance;  \u000a\u000a  public Foo() throws Exception {\u000a    instance = ((Class)((ParameterizedType)this.getClass().\u000a       getGenericSuperclass()).getActualTypeArguments()[0]).newInstance();\u000a    ...\u000a  }\u000a\u000a}\u000a
p1490
sg11
I00
sa(dp1491
g9
S'assert (new Foo<Bar>() {\n}.instance instanceof Bar);'
p1492
sg11
I01
sasg12
I104
sg13
I75345
sg14
I1
sa(dp1493
g6
(lp1494
(dp1495
g9
S'interface Factory<E> {\n\n    E create();\n}\n\nclass SomeContainer<E> {\n\n    private final Factory<E> factory;\n\n    SomeContainer(Factory<E> factory) {\n        this.factory = factory;\n    }\n\n    E createContents() {\n        return factory.create();\n    }\n}'
p1496
sg11
I01
sasg12
I77
sg13
I75528
sg14
I2
sasg25
VCreate instance of generic type in Java?
p1497
ssI2536873
(dp1498
g2
I2537024
sg3
(lp1499
(dp1500
g6
(lp1501
(dp1502
g9
S'JFrame frame = new JFrame("test");\nframe.setDefaultCloseOperation(WindowConstants.EXIT_ON_CLOSE);\nJPanel panel = new JPanel(new GridLayout(4, 4, 4, 4));\nfor (int i = 0; i < 16; i++) {\n    JButton btn = new JButton(String.valueOf(i));\n    btn.setPreferredSize(new Dimension(40, 40));\n    panel.add(btn);\n}\nframe.setContentPane(panel);\nframe.pack();\nframe.setVisible(true);'
p1503
sg11
I01
sa(dp1504
g9
S'JFrame frame = new JFrame("Colored Trails");\nframe.setDefaultCloseOperation(JFrame.EXIT_ON_CLOSE);\nJPanel mainPanel = new JPanel();\nmainPanel.setLayout(new BoxLayout(mainPanel, BoxLayout.Y_AXIS));\nJPanel firstPanel = new JPanel();\nfirstPanel.setLayout(new GridLayout(4, 4));\nfirstPanel.setMaximumSize(new Dimension(400, 400));\nJButton btn;\nfor (int i = 1; i <= 4; i++) {\n    for (int j = 1; j <= 4; j++) {\n        btn = new JButton();\n        btn.setPreferredSize(new Dimension(100, 100));\n        firstPanel.add(btn);\n    }\n}\nJPanel secondPanel = new JPanel();\nsecondPanel.setLayout(new GridLayout(5, 13));\nsecondPanel.setMaximumSize(new Dimension(520, 200));\nfor (int i = 1; i <= 5; i++) {\n    for (int j = 1; j <= 13; j++) {\n        btn = new JButton();\n        btn.setPreferredSize(new Dimension(40, 40));\n        secondPanel.add(btn);\n    }\n}\nmainPanel.add(firstPanel);\nmainPanel.add(secondPanel);\nframe.setContentPane(mainPanel);\nframe.setSize(520, 600);\nframe.setMinimumSize(new Dimension(520, 600));\nframe.setVisible(true);'
p1505
sg11
I01
sasg12
I25
sg13
I2537024
sg14
I0
sa(dp1506
g6
(lp1507
(dp1508
g9
S'import javax.swing.*;\nimport java.awt.*;\n\npublic class PanelModel {\n\n    public static void main(String[] args) {\n        JFrame frame = new JFrame("Colored Trails");\n        frame.setDefaultCloseOperation(JFrame.EXIT_ON_CLOSE);\n        JPanel mainPanel = new JPanel();\n        mainPanel.setLayout(new BoxLayout(mainPanel, BoxLayout.Y_AXIS));\n        JPanel firstPanel = new JPanel(new GridLayout(4, 4));\n        firstPanel.setPreferredSize(new Dimension(4 * 100, 4 * 100));\n        for (int i = 1; i <= 4; i++) {\n            for (int j = 1; j <= 4; j++) {\n                firstPanel.add(new JButton());\n            }\n        }\n        JPanel firstGluePanel = new JPanel(new BorderLayout());\n        firstGluePanel.add(firstPanel, BorderLayout.WEST);\n        firstGluePanel.add(Box.createHorizontalGlue(), BorderLayout.CENTER);\n        firstGluePanel.add(Box.createVerticalGlue(), BorderLayout.SOUTH);\n        JPanel secondPanel = new JPanel(new GridLayout(13, 5));\n        secondPanel.setPreferredSize(new Dimension(5 * 40, 13 * 40));\n        for (int i = 1; i <= 5; i++) {\n            for (int j = 1; j <= 13; j++) {\n                secondPanel.add(new JButton());\n            }\n        }\n        JPanel secondGluePanel = new JPanel(new BorderLayout());\n        secondGluePanel.add(secondPanel, BorderLayout.WEST);\n        secondGluePanel.add(Box.createHorizontalGlue(), BorderLayout.CENTER);\n        secondGluePanel.add(Box.createVerticalGlue(), BorderLayout.SOUTH);\n        mainPanel.add(firstGluePanel);\n        mainPanel.add(secondGluePanel);\n        frame.getContentPane().add(mainPanel);\n        frame.pack();\n        frame.setVisible(true);\n    }\n}'
p1509
sg11
I01
sasg12
I4
sg13
I2536920
sg14
I1
sa(dp1510
g6
(lp1511
sg12
I2
sg13
I2537051
sg14
I2
sasg25
VHow can I set size of a button?
p1512
ssI4802887
(dp1513
g2
Nsg3
(lp1514
(dp1515
g6
(lp1516
(dp1517
g9
S'private transient String name;'
p1518
sg11
I01
sasg12
I438
sg13
I5889590
sg14
I0
sa(dp1519
g6
(lp1520
(dp1521
g9
S'@Expose\nprivate Long id;'
p1522
sg11
I01
sa(dp1523
g9
S'Gson gson = new GsonBuilder().excludeFieldsWithoutExposeAnnotation().create();'
p1524
sg11
I01
sasg12
I257
sg13
I7811253
sg14
I1
sa(dp1525
g6
(lp1526
(dp1527
g9
S'public class TestExclStrat implements ExclusionStrategy {\n\n    public boolean shouldSkipClass(Class<?> arg0) {\n        return false;\n    }\n\n    public boolean shouldSkipField(FieldAttributes f) {\n        return (f.getDeclaringClass() == Student.class && f.getName().equals("firstName")) || (f.getDeclaringClass() == Country.class && f.getName().equals("name"));\n    }\n}'
p1528
sg11
I01
sa(dp1529
g9
S'Gson gson = new GsonBuilder().setExclusionStrategies(new TestExclStrat()).create();\nStudent src = new Student();\nString json = gson.toJson(src);\nSystem.out.println(json);'
p1530
sg11
I01
sa(dp1531
g9
S'public boolean shouldSkipField(FieldAttributes f) {\n    return f.getName().toLowerCase().contains("name");\n}'
p1532
sg11
I01
sa(dp1533
g9
S'public class TestExclStrat implements ExclusionStrategy {\n\n    private Class<?> c;\n\n    private String fieldName;\n\n    public TestExclStrat(String fqfn) throws SecurityException, NoSuchFieldException, ClassNotFoundException {\n        this.c = Class.forName(fqfn.substring(0, fqfn.lastIndexOf(".")));\n        this.fieldName = fqfn.substring(fqfn.lastIndexOf(".") + 1);\n    }\n\n    public boolean shouldSkipClass(Class<?> arg0) {\n        return false;\n    }\n\n    public boolean shouldSkipField(FieldAttributes f) {\n        return (f.getDeclaringClass() == c && f.getName().equals(fieldName));\n    }\n}'
p1534
sg11
I01
sa(dp1535
g9
S'Gson gson = new GsonBuilder().setExclusionStrategies(new TestExclStrat("in.naishe.test.Country.name")).create();\nStudent src = new Student();\nString json = gson.toJson(src);\nSystem.out.println(json);'
p1536
sg11
I01
sasg12
I174
sg13
I4803346
sg14
I2
sasg25
VGson: How to exclude specific fields from Serialization without annotations
p1537
ssI13942701
(dp1538
g2
I13942707
sg3
(lp1539
(dp1540
g6
(lp1541
(dp1542
g9
S'char c = reader.next().charAt(0);'
p1543
sg11
I01
sa(dp1544
g9
S'char c = reader.findInLine(".").charAt(0);'
p1545
sg11
I01
sa(dp1546
g9
S'char c = reader.next(".").charAt(0);'
p1547
sg11
I01
sasg12
I103
sg13
I13942707
sg14
I0
sa(dp1548
g6
(lp1549
(dp1550
g9
S'reader.useDelimiter("");'
p1551
sg11
I01
sasg12
I16
sg13
I28008444
sg14
I1
sa(dp1552
g6
(lp1553
(dp1554
g9
S'Scanner reader = new Scanner(System.in);\nchar c = reader.next().charAt(0);'
p1555
sg11
I01
sa(dp1556
g9
S'Scanner reader = new Scanner(System.in);\nchar c = reader.next().trim().charAt(0);'
p1557
sg11
I01
sasg12
I15
sg13
I13942710
sg14
I2
sasg25
VTake a char input from the Scanner
p1558
ssI4051887
(dp1559
g2
I4051991
sg3
(lp1560
(dp1561
g6
(lp1562
(dp1563
g9
S'public class LeadingZerosExample {\n\n    public static void main(String[] args) {\n        int number = 1500;\n        String formatted = String.format("%07d", number);\n        System.out.println("Number with leading zeros: " + formatted);\n    }\n}'
p1564
sg11
I01
sasg12
I217
sg13
I4051905
sg14
I0
sa(dp1565
g6
(lp1566
(dp1567
g9
S'("00000000" + "Apple").substring("Apple".length());'
p1568
sg11
I01
sasg12
I191
sg13
I4051991
sg14
I1
sa(dp1569
g6
(lp1570
(dp1571
g9
S"StringUtils.leftPad(yourString, 8, '0');"
p1572
sg11
I01
sasg12
I83
sg13
I4051904
sg14
I2
sasg25
VHow to format a Java string with leading zero?
p1573
ssI14676407
(dp1574
g2
I14676464
sg3
(lp1575
(dp1576
g6
(lp1577
(dp1578
g9
S'public void listf(String directoryName, ArrayList<File> files) {\n    File directory = new File(directoryName);\n    File[] fList = directory.listFiles();\n    for (File file : fList) {\n        if (file.isFile()) {\n            files.add(file);\n        } else if (file.isDirectory()) {\n            listf(file.getAbsolutePath(), files);\n        }\n    }\n}'
p1579
sg11
I01
sasg12
I46
sg13
I14676464
sg14
I0
sa(dp1580
g6
(lp1581
(dp1582
g9
VlistFiles\u000a\u000apublic static Collection<File> listFiles(File directory,\u000a                                         String[] extensions,\u000a                                         boolean recursive)\u000aFinds files within a given directory (and optionally its subdirectories) which match an array of extensions.\u000aParameters:\u000adirectory - the directory to search in\u000aextensions - an array of extensions, ex. {"java","xml"}. If this parameter is null, all files are returned.\u000arecursive - if true all subdirectories are searched as well\u000aReturns:\u000aan collection of java.io.File with the matching files\u000a
p1583
sg11
I00
sasg12
I15
sg13
I14676430
sg14
I1
sa(dp1584
g6
(lp1585
(dp1586
g9
S'public static List<File> listf(String directoryName) {\n    File directory = new File(directoryName);\n    List<File> resultList = new ArrayList<File>();\n    File[] fList = directory.listFiles();\n    resultList.addAll(Arrays.asList(fList));\n    for (File file : fList) {\n        if (file.isFile()) {\n            System.out.println(file.getAbsolutePath());\n        } else if (file.isDirectory()) {\n            resultList.addAll(listf(file.getAbsolutePath()));\n        }\n    }\n    return resultList;\n}'
p1587
sg11
I01
sasg12
I12
sg13
I14676506
sg14
I2
sasg25
Vlist all files in the folder and also sub folders
p1588
ssI2364856
(dp1589
g2
I2364887
sg3
(lp1590
(dp1591
g6
(lp1592
(dp1593
g9
S'boolean[] array = new boolean[size];'
p1594
sg11
I01
sa(dp1595
g9
S'Boolean[] array = new Boolean[size];\nArrays.fill(array, Boolean.FALSE);'
p1596
sg11
I01
sasg12
I200
sg13
I2364887
sg14
I0
sa(dp1597
g6
(lp1598
sg12
I11
sg13
I2364873
sg14
I1
sa(dp1599
g6
(lp1600
sg12
I7
sg13
I2364891
sg14
I2
sasg25
Vinitializing a boolean array in java
p1601
ssI5762491
(dp1602
g2
Nsg3
(lp1603
(dp1604
g6
(lp1605
(dp1606
g9
S'public static final String ANSI_RESET = "\x1b[0m";\npublic static final String ANSI_BLACK = "\x1b[30m";\npublic static final String ANSI_RED = "\x1b[31m";\npublic static final String ANSI_GREEN = "\x1b[32m";\npublic static final String ANSI_YELLOW = "\x1b[33m";\npublic static final String ANSI_BLUE = "\x1b[34m";\npublic static final String ANSI_PURPLE = "\x1b[35m";\npublic static final String ANSI_CYAN = "\x1b[36m";\npublic static final String ANSI_WHITE = "\x1b[37m";'
p1607
sg11
I01
sa(dp1608
g9
S'System.out.println(ANSI_RED + "This text is red!" + ANSI_RESET);'
p1609
sg11
I01
sa(dp1610
g9
S'public static final String ANSI_BLACK_BACKGROUND = "\x1b[40m";\npublic static final String ANSI_RED_BACKGROUND = "\x1b[41m";\npublic static final String ANSI_GREEN_BACKGROUND = "\x1b[42m";\npublic static final String ANSI_YELLOW_BACKGROUND = "\x1b[43m";\npublic static final String ANSI_BLUE_BACKGROUND = "\x1b[44m";\npublic static final String ANSI_PURPLE_BACKGROUND = "\x1b[45m";\npublic static final String ANSI_CYAN_BACKGROUND = "\x1b[46m";\npublic static final String ANSI_WHITE_BACKGROUND = "\x1b[47m";'
p1611
sg11
I01
sa(dp1612
g9
VSystem.out.println(ANSI_GREEN_BACKGROUND + "This text has a green background but default text!" + ANSI_RESET");\u000aSystem.out.println(ANSI_RED + "This text has red text but a default background!" + ANSI_RESET");\u000aSystem.out.println(ANSI_GREEN_BACKGROUND + ANSI_RED + "This text has a green background and red text!" + ANSI_RESET");\u000a
p1613
sg11
I00
sasg12
I309
sg13
I5762502
sg14
I0
sa(dp1614
g6
(lp1615
(dp1616
g9
S'print("Hello World!", Attribute.BOLD, FColor.YELLOW, BColor.GREEN);'
p1617
sg11
I01
sasg12
I22
sg13
I6957561
sg14
I1
sa(dp1618
g6
(lp1619
sg12
I12
sg13
I5762503
sg14
I2
sasg25
VHow to print color in console using System.out.println?
p1620
ssI1522108
(dp1621
g2
I1522115
sg3
(lp1622
(dp1623
g6
(lp1624
(dp1625
g9
S'System.out.println(new String(list).indexOf("e"));'
p1626
sg11
I01
sasg12
I36
sg13
I1522115
sg14
I0
sa(dp1627
g6
(lp1628
(dp1629
g9
S"public class T {\n\n    public static void main(String[] args) {\n        char[] list = { 'm', 'e', 'y' };\n        int index = -1;\n        for (int i = 0; (i < list.length) && (index == -1); i++) {\n            if (list[i] == 'e') {\n                index = i;\n            }\n        }\n        System.out.println(index);\n    }\n}"
p1630
sg11
I01
sa(dp1631
g9
S"ArrayList<Character> list = new ArrayList<Character>();\nlist.add('m');\nlist.add('e');\nlist.add('y');\nSystem.out.println(list.indexOf('e'));"
p1632
sg11
I01
sa(dp1633
g9
S"List list = Arrays.asList(new Character[] { 'm', 'e', 'y' });\nSystem.out.println(list.indexOf('e'));"
p1634
sg11
I01
sasg12
I9
sg13
I1522118
sg14
I1
sa(dp1635
g6
(lp1636
(dp1637
g9
S"for (int i = 0; i < list.length; i++) {\n    if (list[i] == 'e') {\n        System.out.println(i);\n        break;\n    }\n}"
p1638
sg11
I01
sasg12
I7
sg13
I1522116
sg14
I2
sasg25
VHow to find the index of an element in an array in Java?
p1639
ssI960431
(dp1640
g2
I960449
sg3
(lp1641
(dp1642
g6
(lp1643
(dp1644
g9
S'int[] array = list.stream().mapToInt(i -> i).toArray();'
p1645
sg11
I01
sasg12
I234
sg13
I23945015
sg14
I0
sa(dp1646
g6
(lp1647
(dp1648
g9
VList<Integer> list = ...\u000aint[] ints = Ints.toArray(list);\u000a
p1649
sg11
I00
sasg12
I164
sg13
I3176296
sg14
I1
sa(dp1650
g6
(lp1651
(dp1652
g9
VList<Integer> myList;\u000a ... assign and fill the list\u000aint[] intArray = ArrayUtils.toPrimitive(myList.toArray(new Integer[myList.size()]));\u000a
p1653
sg11
I00
sa(dp1654
g9
Vstatic final Integer[] NO_INTS = new Integer[0];\u000a   ....\u000aint[] intArray2 = ArrayUtils.toPrimitive(myList.toArray(NO_INTS));\u000a
p1655
sg11
I00
sasg12
I163
sg13
I960507
sg14
I2
sasg25
VHow to convert List<Integer> to int[] in Java?
p1656
ssI20363719
(dp1657
g2
I20363874
sg3
(lp1658
(dp1659
g6
(lp1660
(dp1661
g9
S'Map<String, Choice> result = choices.stream().collect(Collectors.toMap(Choice::getName, Function.identity()));'
p1662
sg11
I01
sasg12
I696
sg13
I20363874
sg14
I0
sa(dp1663
g6
(lp1664
(dp1665
g9
S'Map<String, List<Choice>> result = choices.stream().collect(Collectors.groupingBy(Choice::getName));'
p1666
sg11
I01
sasg12
I117
sg13
I25453317
sg14
I1
sa(dp1667
g6
(lp1668
(dp1669
g9
S'Map<String, Choice> result = choices.stream().collect(Collectors.toMap(Choice::getName, c -> c));'
p1670
sg11
I01
sasg12
I63
sg13
I28779227
sg14
I2
sasg25
VJava 8 List<V> into Map<K, V>
p1671
ssI2369967
(dp1672
g2
I2369983
sg3
(lp1673
(dp1674
g6
(lp1675
(dp1676
g9
S'int[] arr = null;\nif (arr == null) {\n    System.out.println("array is null");\n}'
p1677
sg11
I01
sa(dp1678
g9
S'arr = new int[0];\nif (arr.length == 0) {\n    System.out.println("array is empty");\n}'
p1679
sg11
I01
sa(dp1680
g9
S'Object[] arr = new Object[10];\nboolean empty = true;\nfor (int i = 0; i < arr.length; i++) {\n    if (arr[i] != null) {\n        empty = false;\n        break;\n    }\n}'
p1681
sg11
I01
sa(dp1682
g9
S'Object[] arr = new Object[10];\nboolean empty = true;\nfor (Object ob : arr) {\n    if (ob != null) {\n        empty = false;\n        break;\n    }\n}'
p1683
sg11
I01
sasg12
I136
sg13
I2369983
sg14
I0
sa(dp1684
g6
(lp1685
sg12
I15
sg13
I32383778
sg14
I1
sa(dp1686
g6
(lp1687
(dp1688
g9
Vint[] i = ...;\u000aif (i.length == 0) { } // no elements in the array\u000a
p1689
sg11
I00
sa(dp1690
g9
S'if (i == null || i.length == 0) {\n}'
p1691
sg11
I01
sasg12
I14
sg13
I2369989
sg14
I2
sasg25
Vhow we check for null array in java
p1692
ssI9581530
(dp1693
g2
I9581563
sg3
(lp1694
(dp1695
g6
(lp1696
(dp1697
g9
S'int i = rno[0];'
p1698
sg11
I01
sa(dp1699
g9
S'Byte b = rno[0];\nint i = b.intValue();'
p1700
sg11
I01
sa(dp1701
g9
S'Byte b = new Byte(rno[0]);\nint i = b.intValue();'
p1702
sg11
I01
sa(dp1703
g9
S'int i;\nbyte b;\ni = 5;\nb = (byte) i;'
p1704
sg11
I01
sasg12
I49
sg13
I9581563
sg14
I0
sa(dp1705
g6
(lp1706
(dp1707
g9
S'int i = (rno[0] << 24) & 0xff000000 | (rno[1] << 16) & 0x00ff0000 | (rno[2] << 8) & 0x0000ff00 | (rno[3] << 0) & 0x000000ff;'
p1708
sg11
I01
sasg12
I21
sg13
I9581858
sg14
I1
sa(dp1709
g6
(lp1710
(dp1711
g9
Vbyte b = (byte)0xC8;\u000aint v1 = b;       // v1 is -56 (0xFFFFFFC8)\u000aint v2 = b & 0xFF // v2 is 200 (0x000000C8)\u000a
p1712
sg11
I00
sasg12
I16
sg13
I32452883
sg14
I2
sasg25
VConverting from byte to int in java
p1713
ssI9102318
(dp1714
g2
I9102330
sg3
(lp1715
(dp1716
g6
(lp1717
(dp1718
g9
S'Double d = 5.25;\nInteger i = d.intValue();'
p1719
sg11
I01
sa(dp1720
g9
S'double d = 5.25;\nint i = (int) d;'
p1721
sg11
I01
sasg12
I379
sg13
I9102359
sg14
I0
sa(dp1722
g6
(lp1723
sg12
I321
sg13
I9102330
sg14
I1
sa(dp1724
g6
(lp1725
(dp1726
g9
S'double d = 9.5;\nint i = (int) d;\nDouble D = 9.5;\nint i = Integer.valueOf(D.intValue());\ndouble d = 9.5;\nLong L = Math.round(d);\nint i = Integer.valueOf(L.intValue());'
p1727
sg11
I01
sasg12
I30
sg13
I19998172
sg14
I2
sasg25
VCast Double to Integer in Java
p1728
ssI3402735
(dp1729
g2
I3403112
sg3
(lp1730
(dp1731
g6
(lp1732
(dp1733
g9
S'String content = new Scanner(new File("filename")).useDelimiter("\\\\Z").next();\nSystem.out.println(content);'
p1734
sg11
I01
sasg12
I270
sg13
I3403112
sg14
I0
sa(dp1735
g6
(lp1736
sg12
I139
sg13
I16999974
sg14
I1
sa(dp1737
g6
(lp1738
(dp1739
g9
S'FileInputStream fisTargetFile = new FileInputStream(new File("test.txt"));\nString targetFileStr = IOUtils.toString(fisTargetFile, "UTF-8");'
p1740
sg11
I01
sasg12
I33
sg13
I3403080
sg14
I2
sasg25
VWhat is simplest way to read a file into String?
p1741
ssI8559092
(dp1742
g2
I8559102
sg3
(lp1743
(dp1744
g6
(lp1745
(dp1746
g9
S'ArrayList<ArrayList<Individual>> group = new ArrayList<ArrayList<Individual>>(4);'
p1747
sg11
I01
sa(dp1748
g9
S'List<List<Individual>> group = new ArrayList<List<Individual>>(4);'
p1749
sg11
I01
sasg12
I93
sg13
I8559102
sg14
I0
sa(dp1750
g6
(lp1751
(dp1752
g9
S'ArrayList<Individual>[] group = (ArrayList<Individual>[]) new ArrayList[4];'
p1753
sg11
I01
sasg12
I55
sg13
I8559232
sg14
I1
sa(dp1754
g6
(lp1755
(dp1756
g9
S'ArrayList<String>[] group = new ArrayList[4];'
p1757
sg11
I01
sasg12
I36
sg13
I28588120
sg14
I2
sasg25
VCreate an Array of Arraylists
p1758
ssI2310139
(dp1759
g2
I2325128
sg3
(lp1760
(dp1761
g6
(lp1762
(dp1763
g9
S'XMLReader myReader = XMLReaderFactory.createXMLReader();\nmyReader.setContentHandler(handler);\nmyReader.parse(new InputSource(new URL(url).openStream()));\nDocumentBuilderFactory dbf = DocumentBuilderFactory.newInstance();\nDocumentBuilder db = dbf.newDocumentBuilder();\nDocument doc = db.parse(new URL(url).openStream());'
p1764
sg11
I01
sasg12
I67
sg13
I2325128
sg14
I0
sa(dp1765
g6
(lp1766
(dp1767
g9
S'URL url = new URL(urlString);\nURLConnection conn = url.openConnection();\nDocumentBuilderFactory factory = DocumentBuilderFactory.newInstance();\nDocumentBuilder builder = factory.newDocumentBuilder();\nDocument doc = builder.parse(conn.getInputStream());\nTransformerFactory factory = TransformerFactory.newInstance();\nTransformer xform = factory.newTransformer();\nxform.transform(new DOMSource(doc), new StreamResult(System.out));'
p1768
sg11
I01
sasg12
I8
sg13
I2632593
sg14
I1
sa(dp1769
g6
(lp1770
sg12
I5
sg13
I2310219
sg14
I2
sasg25
VHow to read XML response from a URL in java?
p1771
ss.