(dp0
I20389890
VGenerating a Random Number between 1 and 10 Java
p1
sI11033603
VHow to create a jar with external libraries included in Eclipse?
p2
sI3585544
Vhow to configure hibernate config file for sql server
p3
sI1776142
VgetOutputStream() has already been called for this response
p4
sI1509391
Vhow to get the one entry from hashmap without iterating
p5
sI285712
VJava: Reading a file into an array
p6
sI909843
VHow to get the unique ID of an object which overrides hashCode()?
p7
sI6908948
VJava: sun.security.provider.certpath.SunCertPathBuilderException: unable to find valid certification path to requested target
p8
sI12900373
VIDEA: javac: source release 1.7 requires target release 1.7
p9
sI880662
VInclude one java file in another java file
p10
sI1770010
VHow do I measure time elapsed in Java?
p11
sI860187
VAccess restriction on class due to restriction on required library rt.jar?
p12
sI6452765
VHow to increase Heap size of JVM
p13
sI320542
VHow to get the path of a running JAR file?
p14
sI15039519
VHow to dynamically add elements to String array?
p15
sI70689
VWhat is an efficient way to implement a singleton pattern in Java?
p16
sI21083170
VSpring Boot - how to configure port
p17
sI7032070
VWhat is the difference between ArrayList.clear() and ArrayList.removeAll()?
p18
sI19896870
VWhy is my Spring @Autowired field null?
p19
sI1924136
VEnvironment variable to control java.io.tmpdir?
p20
sI4340653
VFile path to resource in our war/WEB-INF folder?
p21
sI1946668
VSorting using Comparator- Descending order (User defined classes)
p22
sI1532461
VStringBuilder vs String concatenation in toString() in Java
p23
sI1612334
VDifference between DTO, VO, POJO, JavaBeans?
p24
sI15758685
VHow to write logs in text file when using java.util.logging.Logger
p25
sI2002993
VJPA getSingleResult() or null
p26
sI822322
VHow to implement a Map with multiple keys?
p27
sI12757558
VInstalled Java 7 on Mac OS X but Terminal is still using version 6
p28
sI7625783
VJsonMappingException: No suitable constructor found for type [simple type, class ]: can not instantiate from JSON object
p29
sI2376250
VCustom fonts and XML layouts (Android)
p30
sI10959424
VShow only two digit after decimal
p31
sI3767365
Vsuper() in Java
p32
sI8119366
VSorting HashMap by values
p33
sI1816673
VHow do I check if a file exists in Java?
p34
sI13942701
VTake a char input from the Scanner
p35
sI3551821
VAndroid write to sd card folder
p36
sI12737293
VHow do I resolve the "java.net.BindException: Address already in use: JVM_Bind" error?
p37
sI1100371
VGrab a segment of an array in Java without creating a new array on heap
p38
sI7833689
VJava String new line
p39
sI2308188
VgetResourceAsStream() vs FileInputStream
p40
sI16027229
VReading from a text file and storing in a String
p41
sI18122336
VCannot change version of project facet Dynamic Web Module to 3.0?
p42
sI2891361
VHow to set time zone of a java.util.Date?
p43
sI7074402
VHow to insert an object in an ArrayList at a specific position
p44
sI4377699
VSpring @ContextConfiguration how to put the right location for the xml
p45
sI8755812
VArray Length in Java
p46
sI3616359
VWho sets response content-type in Spring MVC (@ResponseBody)
p47
sI1378920
VHow can I make a multipart/form-data POST request using Java?
p48
sI6349421
VHow to use Jackson to deserialise an array of objects
p49
sI2622062
VRun .jar from batch-file
p50
sI5086322
VJava switch statement multiple cases
p51
sI1942644
VGet generic type of java.util.List
p52
sI18441846
VHow to sort an ArrayList in Java
p53
sI1519736
VRandom shuffling of an array
p54
sI6533243
VCreate GUI using Eclipse (Java)
p55
sI24898684
VAndroid Studio - No JVM Installation found
p56
sI12678781
VReversing an Array in Java
p57
sI10796160
VSplitting a Java String by the pipe symbol using split("|")
p58
sI2938502
VSending POST data in Android
p59
sI11703432
VEclipse C++ : "Program "g++" not found in PATH"
p60
sI15940234
VHow to do a SOAP Web Service call from Java class?
p61
sI7347856
VHow to convert a String into an ArrayList?
p62
sI20001427
V:: (double colon) operator in Java 8
p63
sI672916
VHow to get image height and width using java?
p64
sI250517
VJava SE 6 vs. JRE 1.6 vs. JDK 1.6 - What do these mean?
p65
sI5272216
VIs it possible to install both 32bit and 64bit Java on Windows 7?
p66
sI322715
VWhen to use LinkedList over ArrayList?
p67
sI1647260
VJava dynamic array sizes?
p68
sI5927109
VSort objects in ArrayList by date?
p69
sI4377842
VHow can I convert integer into float in Java?
p70
sI2047003
Vprint arraylist element?
p71
sI3914404
VHow to get current moment in ISO 8601 format with date, hour, and minute?
p72
sI4716040
VDo subclasses inherit private fields?
p73
sI1058471
VJava Refuses to Start - Could not reserve enough space for object heap
p74
sI116978
VCan anyone recommend a simple Java web-app framework?
p75
sI7693994
VHow to convert ASCII code (0-255) to a String of the associated character?
p76
sI1249973
Vdecompiling DEX into Java sourcecode
p77
sI5283444
VConvert array of strings into a string in Java
p78
sI413898
VWhat does the 'static' keyword do in a class?
p79
sI1962181
VHow do I delete specific characters from a particular String in Java?
p80
sI20089031
Vcould not extract ResultSet in hibernate
p81
sI2661065
VA good Sorted List for Java
p82
sI2564298
VJava: how to initialize String[]?
p83
sI4240080
VGenerating all permutations of a given string
p84
sI14145235
VJava ArrayList - Check if list is empty
p85
sI11409621
VCreating a triangle with for loops
p86
sI3395286
VRemove last character of a StringBuilder?
p87
sI6576855
VJava: How to access methods from another class
p88
sI689370
VJava Collections copy list - I don't understand
p89
sI17419727
VHow to use session in jsp pages to get information?
p90
sI867194
VJava ResultSet how to check if there are any results
p91
sI8721262
VHow to get file size in Java
p92
sI20824634
Vandroid on Text Change Listener
p93
sI2843366
VHow to add new elements to an array?
p94
sI17940200
VHow to find the duration of difference between two dates in java?
p95
sI16574189
VAndroid Studio installation on Windows 7 fails, no JDK found
p96
sI29426
VBest GUI designer for eclipse?
p97
sI16189651
VAndroid ListView selected item stay highlighted
p98
sI3605237
VHow print out the contents of a HashMap<String, String> in ascending order based on its values?
p99
sI4546807
VImplementing multiple interfaces with Java - is there a way to delegate?
p100
sI5251323
VWhere can I find the Java SDK in Linux?
p101
sI454908
VSplit Java String by New Line
p102
sI27598078
VFloat and double datatype in java
p103
sI17408769
VHow do I resolve ClassNotFoundException?
p104
sI18915075
VJava: Convert String to TimeStamp
p105
sI4266756
VCan we make unsigned byte in Java
p106
sI18040361
VJava Could not reserve enough space for object heap error
p107
sI88838
VHow to convert Strings to and from UTF8 byte arrays in Java
p108
sI5138696
Vorg.xml.sax.SAXParseException: Content is not allowed in prolog
p109
sI100107
VCauses of getting a java.lang.VerifyError
p110
sI1906445
VWhat is the difference between JDK and JRE?
p111
sI7279887
VWhat is the use of a private static variable in Java?
p112
sI7438612
VHow to remove the last character from a string?
p113
sI2839321
VConnect Java to a MySQL database
p114
sI6302490
VEclipse plugin for generating a class diagram
p115
sI24600860
VError launching Eclipse 4.4 "Version 1.6.0_65 of the JVM is not suitable for this product."
p116
sI11954461
VCould not autowire field in spring. why?
p117
sI2430756
VWhy are interface variables static and final by default?
p118
sI4051887
VHow to format a Java string with leading zero?
p119
sI8444710
VEasiest way to check if a string is palindrome
p120
sI513832
VHow do I compare strings in Java?
p121
sI1463597
VEvaluate if list is empty JSTL
p122
sI4112686
VHow to use Servlets and Ajax?
p123
sI332079
VIn Java, how do I convert a byte array to a string of hex digits while keeping leading zeros?
p124
sI1052978
VEclipse - java.lang.ClassNotFoundException
p125
sI5993779
VUse String.split() with multiple delimiters
p126
sI18825950
VHow to get a index value from foreach loop in jstl
p127
sI4709175
VWhat are enums and why are they useful?
p128
sI295224
VWhat are major differences between C# and Java?
p129
sI8965946
VConfiguring Log4j Loggers Programmatically
p130
sI2966334
VHow do I set the colour of a label (coloured text) in Java?
p131
sI4040001
VCreating random numbers with no duplicates
p132
sI4803906
VReading a JSP variable from JavaScript
p133
sI1129795
VWhat is SuppressWarnings ("unchecked") in Java?
p134
sI109383
VSort a Map<Key, Value> by values (Java)
p135
sI811851
VHow do I read input character-by-character in Java?
p136
sI8895823
VThe specified DSN contains an architecture mismatch between the Driver and Application. JAVA
p137
sI12144466
VHow do I compare if a string is not equal to?
p138
sI1434779
VMaximum Java heap size of a 32-bit JVM on a 64-bit OS
p139
sI4967482
VRedirect pages in JSP?
p140
sI1391970
VHow to convert a String to CharSequence?
p141
sI7522022
VHow to delete stuff printed to console by System.out.println()?
p142
sI473446
VJava current machine name and logged in user?
p143
sI3806062
VHow to open a txt file and read numbers in java
p144
sI2525042
VHow to convert a JSON string to a Map<String, String> with Jackson JSON
p145
sI4404084
VCheck if a value exists in ArrayList
p146
sI1383797
VJava Hashmap: How to get key from value?
p147
sI2011664
VCompiling a java program into an executable
p148
sI112503
VHow do I remove objects from an array in Java?
p149
sI8557716
VHow to return multiple values?
p150
sI2707322
VWhat is null in Java?
p151
sI13386107
VHow to remove single character from a String
p152
sI4138364
VJava: How to convert List to Map
p153
sI3426843
VWhat is the default initialization of an array in Java?
p154
sI21099072
VEclipse/Maven error: "No compiler is provided in this environment"
p155
sI6851461
VJava: Why does SSL handshake give 'Could not generate DH keypair' exception?
p156
sI12594058
Vhow to use math.pi in java
p157
sI3714957
VAddress already in use: JVM_Bind
p158
sI20700053
VHow to add local .jar file dependency to build.gradle file?
p159
sI2627992
VForce Java timezone as GMT/UTC
p160
sI1448858
VHow to color System.out.println output?
p161
sI1892765
VHow to capitalize the first character of each word in a string
p162
sI15874117
VHow to set delay in android?
p163
sI922528
Vhow to sort Map values by key in Java
p164
sI1079713
Vgood example of Javadoc
p165
sI240546
VRemove HTML tags from a String
p166
sI2137755
VHow do I reverse an int array in Java?
p167
sI75175
VCreate instance of generic type in Java?
p168
sI2536873
VHow can I set size of a button?
p169
sI4802887
VGson: How to exclude specific fields from Serialization without annotations
p170
sI248562
VWhen using Spring Security, what is the proper way to obtain current username (i.e. SecurityContext) information in a bean?
p171
sI960431
VHow to convert List<Integer> to int[] in Java?
p172
sI5289393
VCasting variables in Java
p173
sI29140402
VHow do I print my Java object without getting "SomeType@2f92e0f4"?
p174
sI14676407
Vlist all files in the folder and also sub folders
p175
sI2364856
Vinitializing a boolean array in java
p176
sI5762491
VHow to print color in console using System.out.println?
p177
sI1522108
VHow to find the index of an element in an array in Java?
p178
sI4922305
VHow can I change font size in Eclipse for Java text editors?
p179
sI886722
VHow to use wait and notify in Java?
p180
sI4764611
Vjava.security.InvalidAlgorithmParameterException: the trustAnchors parameter must be non-empty on Linux, or why is the default truststore empty
p181
sI20363719
VJava 8 List<V> into Map<K, V>
p182
sI215497
VIn Java, difference between default, public, protected, and private
p183
sI14579661
VHow to set CATALINA_HOME variable in windows 7?
p184
sI335311
VStatic initializer in Java
p185
sI14750747
Vorg.apache.catalina.LifecycleException: Failed to start component [StandardEngine[Catalina].StandardHost[localhost].StandardContext[/CollegeWebsite]]
p186
sI32807587
Vcom.android.build.transform.api.TransformException
p187
sI2369967
Vhow we check for null array in java
p188
sI9581530
VConverting from byte to int in java
p189
sI120797
VHow do I set the proxy to be used by the JVM
p190
sI4963300
VWhich @NotNull Java annotation should I use?
p191
sI16425127
VHow to use Collections.sort() in JAVA ? (Specific situation)
p192
sI9102318
VCast Double to Integer in Java
p193
sI3402735
VWhat is simplest way to read a file into String?
p194
sI2030064
VHow to run eclipse in clean mode? and what happens if we do so?
p195
sI4955635
VHow to add local jar files in maven project?
p196
sI8559092
VCreate an Array of Arraylists
p197
sI11552248
VWhen to use @QueryParam vs @PathParam
p198
sI285177
VHow do I call one constructor from another in Java?
p199
sI2310139
VHow to read XML response from a URL in java?
p200
s.